
main.out:     file format elf32-littleriscv


Disassembly of section .text:

40001000 <__reonv_start>:
40001000:	00000093          	li	ra,0
40001004:	00000113          	li	sp,0
40001008:	00000193          	li	gp,0
4000100c:	00000213          	li	tp,0
40001010:	00000293          	li	t0,0
40001014:	00000313          	li	t1,0
40001018:	00000393          	li	t2,0
4000101c:	00000413          	li	s0,0
40001020:	00000493          	li	s1,0
40001024:	00000513          	li	a0,0
40001028:	00000593          	li	a1,0
4000102c:	00000613          	li	a2,0
40001030:	00000693          	li	a3,0
40001034:	00000713          	li	a4,0
40001038:	00000793          	li	a5,0
4000103c:	00000813          	li	a6,0
40001040:	00000893          	li	a7,0
40001044:	00000913          	li	s2,0
40001048:	00000993          	li	s3,0
4000104c:	00000a13          	li	s4,0
40001050:	00000a93          	li	s5,0
40001054:	00000b13          	li	s6,0
40001058:	00000b93          	li	s7,0
4000105c:	00000c13          	li	s8,0
40001060:	00000c93          	li	s9,0
40001064:	00000d13          	li	s10,0
40001068:	00000d93          	li	s11,0
4000106c:	00000e13          	li	t3,0
40001070:	00000e93          	li	t4,0
40001074:	00000f13          	li	t5,0
40001078:	00000f93          	li	t6,0
4000107c:	44000137          	lui	sp,0x44000
40001080:	ff010113          	addi	sp,sp,-16 # 43fffff0 <__global_pointer$+0x3ffc8e0>
40001084:	630000ef          	jal	ra,400016b4 <main>
40001088:	004000ef          	jal	ra,4000108c <__wrap_exit>

4000108c <__wrap_exit>:
4000108c:	01c0006f          	j	400010a8 <_exit_c>

40001090 <__wrap_open>:
40001090:	2840006f          	j	40001314 <_open_c>

40001094 <__wrap_close>:
40001094:	2b80006f          	j	4000134c <_close_c>

40001098 <__wrap_write>:
40001098:	1c80006f          	j	40001260 <_write_c>

4000109c <__wrap_read>:
4000109c:	1180006f          	j	400011b4 <_read_c>

400010a0 <__wrap_lseek>:
400010a0:	02c0006f          	j	400010cc <_lseek_c>

400010a4 <__wrap_sbrk>:
400010a4:	2d00006f          	j	40001374 <_sbrk_c>

400010a8 <_exit_c>:
400010a8:	fe010113          	addi	sp,sp,-32
400010ac:	00812e23          	sw	s0,28(sp)
400010b0:	02010413          	addi	s0,sp,32
400010b4:	fea42623          	sw	a0,-20(s0)
400010b8:	00100073          	ebreak
400010bc:	00000013          	nop
400010c0:	01c12403          	lw	s0,28(sp)
400010c4:	02010113          	addi	sp,sp,32
400010c8:	00008067          	ret

400010cc <_lseek_c>:
400010cc:	fe010113          	addi	sp,sp,-32
400010d0:	00812e23          	sw	s0,28(sp)
400010d4:	02010413          	addi	s0,sp,32
400010d8:	fea42623          	sw	a0,-20(s0)
400010dc:	feb42423          	sw	a1,-24(s0)
400010e0:	fec42223          	sw	a2,-28(s0)
400010e4:	fe442783          	lw	a5,-28(s0)
400010e8:	02079063          	bnez	a5,40001108 <_lseek_c+0x3c>
400010ec:	fe842703          	lw	a4,-24(s0)
400010f0:	440007b7          	lui	a5,0x44000
400010f4:	00f707b3          	add	a5,a4,a5
400010f8:	00078713          	mv	a4,a5
400010fc:	400017b7          	lui	a5,0x40001
40001100:	3ce7a023          	sw	a4,960(a5) # 400013c0 <out_mem>
40001104:	05c0006f          	j	40001160 <_lseek_c+0x94>
40001108:	fe442703          	lw	a4,-28(s0)
4000110c:	00100793          	li	a5,1
40001110:	02f71063          	bne	a4,a5,40001130 <_lseek_c+0x64>
40001114:	400017b7          	lui	a5,0x40001
40001118:	3c07a703          	lw	a4,960(a5) # 400013c0 <out_mem>
4000111c:	fe842783          	lw	a5,-24(s0)
40001120:	00f70733          	add	a4,a4,a5
40001124:	400017b7          	lui	a5,0x40001
40001128:	3ce7a023          	sw	a4,960(a5) # 400013c0 <out_mem>
4000112c:	0340006f          	j	40001160 <_lseek_c+0x94>
40001130:	fe442703          	lw	a4,-28(s0)
40001134:	00200793          	li	a5,2
40001138:	02f71063          	bne	a4,a5,40001158 <_lseek_c+0x8c>
4000113c:	fe842703          	lw	a4,-24(s0)
40001140:	450007b7          	lui	a5,0x45000
40001144:	00f707b3          	add	a5,a4,a5
40001148:	00078713          	mv	a4,a5
4000114c:	400017b7          	lui	a5,0x40001
40001150:	3ce7a023          	sw	a4,960(a5) # 400013c0 <out_mem>
40001154:	00c0006f          	j	40001160 <_lseek_c+0x94>
40001158:	fff00793          	li	a5,-1
4000115c:	0480006f          	j	400011a4 <_lseek_c+0xd8>
40001160:	400017b7          	lui	a5,0x40001
40001164:	3c07a703          	lw	a4,960(a5) # 400013c0 <out_mem>
40001168:	440007b7          	lui	a5,0x44000
4000116c:	00f77663          	bleu	a5,a4,40001178 <_lseek_c+0xac>
40001170:	fff00793          	li	a5,-1
40001174:	0300006f          	j	400011a4 <_lseek_c+0xd8>
40001178:	400017b7          	lui	a5,0x40001
4000117c:	3c07a703          	lw	a4,960(a5) # 400013c0 <out_mem>
40001180:	450007b7          	lui	a5,0x45000
40001184:	00e7f663          	bleu	a4,a5,40001190 <_lseek_c+0xc4>
40001188:	fff00793          	li	a5,-1
4000118c:	0180006f          	j	400011a4 <_lseek_c+0xd8>
40001190:	400017b7          	lui	a5,0x40001
40001194:	3c07a783          	lw	a5,960(a5) # 400013c0 <out_mem>
40001198:	00078713          	mv	a4,a5
4000119c:	bc0007b7          	lui	a5,0xbc000
400011a0:	00f707b3          	add	a5,a4,a5
400011a4:	00078513          	mv	a0,a5
400011a8:	01c12403          	lw	s0,28(sp)
400011ac:	02010113          	addi	sp,sp,32
400011b0:	00008067          	ret

400011b4 <_read_c>:
400011b4:	fd010113          	addi	sp,sp,-48
400011b8:	02812623          	sw	s0,44(sp)
400011bc:	03010413          	addi	s0,sp,48
400011c0:	fca42e23          	sw	a0,-36(s0)
400011c4:	fcb42c23          	sw	a1,-40(s0)
400011c8:	fcc42a23          	sw	a2,-44(s0)
400011cc:	fdc42283          	lw	t0,-36(s0)
400011d0:	fd842303          	lw	t1,-40(s0)
400011d4:	fd442383          	lw	t2,-44(s0)
400011d8:	fe042623          	sw	zero,-20(s0)
400011dc:	0340006f          	j	40001210 <_read_c+0x5c>
400011e0:	400017b7          	lui	a5,0x40001
400011e4:	3c07a703          	lw	a4,960(a5) # 400013c0 <out_mem>
400011e8:	fec42783          	lw	a5,-20(s0)
400011ec:	00f70733          	add	a4,a4,a5
400011f0:	fec42783          	lw	a5,-20(s0)
400011f4:	fd842683          	lw	a3,-40(s0)
400011f8:	00f687b3          	add	a5,a3,a5
400011fc:	00074703          	lbu	a4,0(a4)
40001200:	00e78023          	sb	a4,0(a5)
40001204:	fec42783          	lw	a5,-20(s0)
40001208:	00178793          	addi	a5,a5,1
4000120c:	fef42623          	sw	a5,-20(s0)
40001210:	fec42703          	lw	a4,-20(s0)
40001214:	fd442783          	lw	a5,-44(s0)
40001218:	00f75e63          	ble	a5,a4,40001234 <_read_c+0x80>
4000121c:	400017b7          	lui	a5,0x40001
40001220:	3c07a703          	lw	a4,960(a5) # 400013c0 <out_mem>
40001224:	fec42783          	lw	a5,-20(s0)
40001228:	00f70733          	add	a4,a4,a5
4000122c:	450007b7          	lui	a5,0x45000
40001230:	faf768e3          	bltu	a4,a5,400011e0 <_read_c+0x2c>
40001234:	400017b7          	lui	a5,0x40001
40001238:	3c07a703          	lw	a4,960(a5) # 400013c0 <out_mem>
4000123c:	fec42783          	lw	a5,-20(s0)
40001240:	00f70733          	add	a4,a4,a5
40001244:	400017b7          	lui	a5,0x40001
40001248:	3ce7a023          	sw	a4,960(a5) # 400013c0 <out_mem>
4000124c:	fec42783          	lw	a5,-20(s0)
40001250:	00078513          	mv	a0,a5
40001254:	02c12403          	lw	s0,44(sp)
40001258:	03010113          	addi	sp,sp,48
4000125c:	00008067          	ret

40001260 <_write_c>:
40001260:	fd010113          	addi	sp,sp,-48
40001264:	02812623          	sw	s0,44(sp)
40001268:	03010413          	addi	s0,sp,48
4000126c:	fca42e23          	sw	a0,-36(s0)
40001270:	fcb42c23          	sw	a1,-40(s0)
40001274:	fcc42a23          	sw	a2,-44(s0)
40001278:	fdc42283          	lw	t0,-36(s0)
4000127c:	fd842303          	lw	t1,-40(s0)
40001280:	fd442383          	lw	t2,-44(s0)
40001284:	fe042623          	sw	zero,-20(s0)
40001288:	03c0006f          	j	400012c4 <_write_c+0x64>
4000128c:	fec42783          	lw	a5,-20(s0)
40001290:	fd842703          	lw	a4,-40(s0)
40001294:	00f70733          	add	a4,a4,a5
40001298:	400017b7          	lui	a5,0x40001
4000129c:	3c47a783          	lw	a5,964(a5) # 400013c4 <console>
400012a0:	00074703          	lbu	a4,0(a4)
400012a4:	00e78023          	sb	a4,0(a5)
400012a8:	00000013          	nop
400012ac:	400017b7          	lui	a5,0x40001
400012b0:	3c87a783          	lw	a5,968(a5) # 400013c8 <uart_shifter>
400012b4:	0007a783          	lw	a5,0(a5)
400012b8:	fec42783          	lw	a5,-20(s0)
400012bc:	00178793          	addi	a5,a5,1
400012c0:	fef42623          	sw	a5,-20(s0)
400012c4:	fec42703          	lw	a4,-20(s0)
400012c8:	fd442783          	lw	a5,-44(s0)
400012cc:	00f75e63          	ble	a5,a4,400012e8 <_write_c+0x88>
400012d0:	400017b7          	lui	a5,0x40001
400012d4:	3c07a703          	lw	a4,960(a5) # 400013c0 <out_mem>
400012d8:	fec42783          	lw	a5,-20(s0)
400012dc:	00f70733          	add	a4,a4,a5
400012e0:	450007b7          	lui	a5,0x45000
400012e4:	faf764e3          	bltu	a4,a5,4000128c <_write_c+0x2c>
400012e8:	400017b7          	lui	a5,0x40001
400012ec:	3c07a703          	lw	a4,960(a5) # 400013c0 <out_mem>
400012f0:	fec42783          	lw	a5,-20(s0)
400012f4:	00f70733          	add	a4,a4,a5
400012f8:	400017b7          	lui	a5,0x40001
400012fc:	3ce7a023          	sw	a4,960(a5) # 400013c0 <out_mem>
40001300:	fec42783          	lw	a5,-20(s0)
40001304:	00078513          	mv	a0,a5
40001308:	02c12403          	lw	s0,44(sp)
4000130c:	03010113          	addi	sp,sp,48
40001310:	00008067          	ret

40001314 <_open_c>:
40001314:	fe010113          	addi	sp,sp,-32
40001318:	00812e23          	sw	s0,28(sp)
4000131c:	02010413          	addi	s0,sp,32
40001320:	fea42623          	sw	a0,-20(s0)
40001324:	feb42423          	sw	a1,-24(s0)
40001328:	fec42223          	sw	a2,-28(s0)
4000132c:	fec42283          	lw	t0,-20(s0)
40001330:	fe842303          	lw	t1,-24(s0)
40001334:	fe442383          	lw	t2,-28(s0)
40001338:	00000793          	li	a5,0
4000133c:	00078513          	mv	a0,a5
40001340:	01c12403          	lw	s0,28(sp)
40001344:	02010113          	addi	sp,sp,32
40001348:	00008067          	ret

4000134c <_close_c>:
4000134c:	fe010113          	addi	sp,sp,-32
40001350:	00812e23          	sw	s0,28(sp)
40001354:	02010413          	addi	s0,sp,32
40001358:	fea42623          	sw	a0,-20(s0)
4000135c:	fec42283          	lw	t0,-20(s0)
40001360:	00000793          	li	a5,0
40001364:	00078513          	mv	a0,a5
40001368:	01c12403          	lw	s0,28(sp)
4000136c:	02010113          	addi	sp,sp,32
40001370:	00008067          	ret

40001374 <_sbrk_c>:
40001374:	fd010113          	addi	sp,sp,-48
40001378:	02812623          	sw	s0,44(sp)
4000137c:	03010413          	addi	s0,sp,48
40001380:	fca42e23          	sw	a0,-36(s0)
40001384:	400017b7          	lui	a5,0x40001
40001388:	3bc7a783          	lw	a5,956(a5) # 400013bc <heap>
4000138c:	fef42623          	sw	a5,-20(s0)
40001390:	400017b7          	lui	a5,0x40001
40001394:	3bc7a703          	lw	a4,956(a5) # 400013bc <heap>
40001398:	fdc42783          	lw	a5,-36(s0)
4000139c:	00f70733          	add	a4,a4,a5
400013a0:	400017b7          	lui	a5,0x40001
400013a4:	3ae7ae23          	sw	a4,956(a5) # 400013bc <heap>
400013a8:	fec42783          	lw	a5,-20(s0)
400013ac:	00078513          	mv	a0,a5
400013b0:	02c12403          	lw	s0,44(sp)
400013b4:	03010113          	addi	sp,sp,48
400013b8:	00008067          	ret

400013bc <heap>:
400013bc:	0000                	unimp
400013be:	4300                	lw	s0,0(a4)

400013c0 <out_mem>:
400013c0:	0000                	unimp
400013c2:	4400                	lw	s0,8(s0)

400013c4 <console>:
400013c4:	0100                	addi	s0,sp,128
400013c6:	8000                	0x8000

400013c8 <uart_shifter>:
400013c8:	0104                	addi	s1,sp,128
400013ca:	8000                	0x8000
400013cc:	3a434347          	fmsub.d	ft6,ft6,ft4,ft7,rmm
400013d0:	2820                	fld	fs0,80(s0)
400013d2:	29554e47          	fmsub.s	ft8,fa0,fs5,ft5,rmm
400013d6:	3720                	fld	fs0,104(a4)
400013d8:	322e                	fld	ft4,232(sp)
400013da:	302e                	fld	ft0,232(sp)
400013dc:	0000                	unimp
	...

400013e0 <apbuart_outbyte_polled>:
400013e0:	fe010113          	addi	sp,sp,-32
400013e4:	00812e23          	sw	s0,28(sp)
400013e8:	02010413          	addi	s0,sp,32
400013ec:	00050793          	mv	a5,a0
400013f0:	feb42423          	sw	a1,-24(s0)
400013f4:	fec42223          	sw	a2,-28(s0)
400013f8:	fef407a3          	sb	a5,-17(s0)
400013fc:	0240006f          	j	40001420 <apbuart_outbyte_polled+0x40>
40001400:	00000013          	nop
40001404:	00000013          	nop
40001408:	00000013          	nop
4000140c:	00000013          	nop
40001410:	00000013          	nop
40001414:	00000013          	nop
40001418:	00000013          	nop
4000141c:	00000013          	nop
40001420:	400017b7          	lui	a5,0x40001
40001424:	5747a783          	lw	a5,1396(a5) # 40001574 <uart_regs>
40001428:	0047a783          	lw	a5,4(a5)
4000142c:	0047f793          	andi	a5,a5,4
40001430:	fc0788e3          	beqz	a5,40001400 <apbuart_outbyte_polled+0x20>
40001434:	fef44703          	lbu	a4,-17(s0)
40001438:	00a00793          	li	a5,10
4000143c:	02f71263          	bne	a4,a5,40001460 <apbuart_outbyte_polled+0x80>
40001440:	fe842783          	lw	a5,-24(s0)
40001444:	00078e63          	beqz	a5,40001460 <apbuart_outbyte_polled+0x80>
40001448:	400017b7          	lui	a5,0x40001
4000144c:	5747a783          	lw	a5,1396(a5) # 40001574 <uart_regs>
40001450:	00d00713          	li	a4,13
40001454:	00e7a023          	sw	a4,0(a5)
40001458:	fe042423          	sw	zero,-24(s0)
4000145c:	fa1ff06f          	j	400013fc <apbuart_outbyte_polled+0x1c>
40001460:	400017b7          	lui	a5,0x40001
40001464:	5747a783          	lw	a5,1396(a5) # 40001574 <uart_regs>
40001468:	fef44703          	lbu	a4,-17(s0)
4000146c:	00e7a023          	sw	a4,0(a5)
40001470:	fe442783          	lw	a5,-28(s0)
40001474:	00078e63          	beqz	a5,40001490 <apbuart_outbyte_polled+0xb0>
40001478:	00000013          	nop
4000147c:	400017b7          	lui	a5,0x40001
40001480:	5747a783          	lw	a5,1396(a5) # 40001574 <uart_regs>
40001484:	0047a783          	lw	a5,4(a5)
40001488:	0047f793          	andi	a5,a5,4
4000148c:	fe0788e3          	beqz	a5,4000147c <apbuart_outbyte_polled+0x9c>
40001490:	00000013          	nop
40001494:	01c12403          	lw	s0,28(sp)
40001498:	02010113          	addi	sp,sp,32
4000149c:	00008067          	ret

400014a0 <apbuart_write_polled>:
400014a0:	fd010113          	addi	sp,sp,-48
400014a4:	02112623          	sw	ra,44(sp)
400014a8:	02812423          	sw	s0,40(sp)
400014ac:	03010413          	addi	s0,sp,48
400014b0:	fca42e23          	sw	a0,-36(s0)
400014b4:	fcb42c23          	sw	a1,-40(s0)
400014b8:	fe042623          	sw	zero,-20(s0)
400014bc:	0300006f          	j	400014ec <apbuart_write_polled+0x4c>
400014c0:	fdc42783          	lw	a5,-36(s0)
400014c4:	00178713          	addi	a4,a5,1
400014c8:	fce42e23          	sw	a4,-36(s0)
400014cc:	0007c783          	lbu	a5,0(a5)
400014d0:	00100613          	li	a2,1
400014d4:	00000593          	li	a1,0
400014d8:	00078513          	mv	a0,a5
400014dc:	f05ff0ef          	jal	ra,400013e0 <apbuart_outbyte_polled>
400014e0:	fec42783          	lw	a5,-20(s0)
400014e4:	00178793          	addi	a5,a5,1
400014e8:	fef42623          	sw	a5,-20(s0)
400014ec:	fec42703          	lw	a4,-20(s0)
400014f0:	fd842783          	lw	a5,-40(s0)
400014f4:	fcf766e3          	bltu	a4,a5,400014c0 <apbuart_write_polled+0x20>
400014f8:	00000013          	nop
400014fc:	02c12083          	lw	ra,44(sp)
40001500:	02812403          	lw	s0,40(sp)
40001504:	03010113          	addi	sp,sp,48
40001508:	00008067          	ret

4000150c <bsp_debug_uart_init>:
4000150c:	ff010113          	addi	sp,sp,-16
40001510:	00812623          	sw	s0,12(sp)
40001514:	01010413          	addi	s0,sp,16
40001518:	400017b7          	lui	a5,0x40001
4000151c:	5747a783          	lw	a5,1396(a5) # 40001574 <uart_regs>
40001520:	0087a703          	lw	a4,8(a5)
40001524:	400017b7          	lui	a5,0x40001
40001528:	5747a783          	lw	a5,1396(a5) # 40001574 <uart_regs>
4000152c:	00376713          	ori	a4,a4,3
40001530:	00e7a423          	sw	a4,8(a5)
40001534:	400017b7          	lui	a5,0x40001
40001538:	5747a783          	lw	a5,1396(a5) # 40001574 <uart_regs>
4000153c:	0007a223          	sw	zero,4(a5)
40001540:	00000013          	nop
40001544:	00c12403          	lw	s0,12(sp)
40001548:	01010113          	addi	sp,sp,16
4000154c:	00008067          	ret

40001550 <pre_printk_dbgbuf>:
	...

40001570 <pre_printk_pos>:
40001570:	0000                	unimp
	...

40001574 <uart_regs>:
40001574:	0100                	addi	s0,sp,128
40001576:	8000                	0x8000

40001578 <_start>:
40001578:	00002197          	auipc	gp,0x2
4000157c:	19818193          	addi	gp,gp,408 # 40003710 <__global_pointer$>
40001580:	80c18513          	addi	a0,gp,-2036 # 40002f1c <_edata>
40001584:	82818613          	addi	a2,gp,-2008 # 40002f38 <_end>
40001588:	40a60633          	sub	a2,a2,a0
4000158c:	00000593          	li	a1,0
40001590:	3c8000ef          	jal	ra,40001958 <memset>
40001594:	00000517          	auipc	a0,0x0
40001598:	2b450513          	addi	a0,a0,692 # 40001848 <__libc_fini_array>
4000159c:	298000ef          	jal	ra,40001834 <atexit>
400015a0:	318000ef          	jal	ra,400018b8 <__libc_init_array>
400015a4:	00012503          	lw	a0,0(sp)
400015a8:	00410593          	addi	a1,sp,4
400015ac:	00000613          	li	a2,0
400015b0:	104000ef          	jal	ra,400016b4 <main>
400015b4:	ad9ff06f          	j	4000108c <__wrap_exit>

400015b8 <_fini>:
400015b8:	00008067          	ret

400015bc <deregister_tm_clones>:
400015bc:	40003537          	lui	a0,0x40003
400015c0:	400037b7          	lui	a5,0x40003
400015c4:	f1050713          	addi	a4,a0,-240 # 40002f10 <__TMC_END__>
400015c8:	f1078793          	addi	a5,a5,-240 # 40002f10 <__TMC_END__>
400015cc:	00e78c63          	beq	a5,a4,400015e4 <deregister_tm_clones+0x28>
400015d0:	00000337          	lui	t1,0x0
400015d4:	00030313          	mv	t1,t1
400015d8:	00030663          	beqz	t1,400015e4 <deregister_tm_clones+0x28>
400015dc:	f1050513          	addi	a0,a0,-240
400015e0:	00030067          	jr	t1
400015e4:	00008067          	ret

400015e8 <register_tm_clones>:
400015e8:	400037b7          	lui	a5,0x40003
400015ec:	40003537          	lui	a0,0x40003
400015f0:	f1078593          	addi	a1,a5,-240 # 40002f10 <__TMC_END__>
400015f4:	f1050793          	addi	a5,a0,-240 # 40002f10 <__TMC_END__>
400015f8:	40f585b3          	sub	a1,a1,a5
400015fc:	4025d593          	srai	a1,a1,0x2
40001600:	01f5d793          	srli	a5,a1,0x1f
40001604:	00b785b3          	add	a1,a5,a1
40001608:	4015d593          	srai	a1,a1,0x1
4000160c:	00058c63          	beqz	a1,40001624 <register_tm_clones+0x3c>
40001610:	00000337          	lui	t1,0x0
40001614:	00030313          	mv	t1,t1
40001618:	00030663          	beqz	t1,40001624 <register_tm_clones+0x3c>
4000161c:	f1050513          	addi	a0,a0,-240
40001620:	00030067          	jr	t1
40001624:	00008067          	ret

40001628 <__do_global_dtors_aux>:
40001628:	80c1c703          	lbu	a4,-2036(gp) # 40002f1c <_edata>
4000162c:	04071663          	bnez	a4,40001678 <__do_global_dtors_aux+0x50>
40001630:	ff010113          	addi	sp,sp,-16
40001634:	00812423          	sw	s0,8(sp)
40001638:	00112623          	sw	ra,12(sp)
4000163c:	00078413          	mv	s0,a5
40001640:	f7dff0ef          	jal	ra,400015bc <deregister_tm_clones>
40001644:	000007b7          	lui	a5,0x0
40001648:	00078793          	mv	a5,a5
4000164c:	00078a63          	beqz	a5,40001660 <__do_global_dtors_aux+0x38>
40001650:	40002537          	lui	a0,0x40002
40001654:	ad850513          	addi	a0,a0,-1320 # 40001ad8 <__EH_FRAME_BEGIN__>
40001658:	bffff097          	auipc	ra,0xbffff
4000165c:	9a8080e7          	jalr	-1624(ra) # 0 <__reonv_start-0x40001000>
40001660:	00100793          	li	a5,1
40001664:	80f18623          	sb	a5,-2036(gp) # 40002f1c <_edata>
40001668:	00c12083          	lw	ra,12(sp)
4000166c:	00812403          	lw	s0,8(sp)
40001670:	01010113          	addi	sp,sp,16
40001674:	00008067          	ret
40001678:	00008067          	ret

4000167c <frame_dummy>:
4000167c:	000007b7          	lui	a5,0x0
40001680:	00078793          	mv	a5,a5
40001684:	02078663          	beqz	a5,400016b0 <frame_dummy+0x34>
40001688:	400035b7          	lui	a1,0x40003
4000168c:	40002537          	lui	a0,0x40002
40001690:	ff010113          	addi	sp,sp,-16
40001694:	f2058593          	addi	a1,a1,-224 # 40002f20 <object.5181>
40001698:	ad850513          	addi	a0,a0,-1320 # 40001ad8 <__EH_FRAME_BEGIN__>
4000169c:	00112623          	sw	ra,12(sp)
400016a0:	bffff097          	auipc	ra,0xbffff
400016a4:	960080e7          	jalr	-1696(ra) # 0 <__reonv_start-0x40001000>
400016a8:	00c12083          	lw	ra,12(sp)
400016ac:	01010113          	addi	sp,sp,16
400016b0:	f39ff06f          	j	400015e8 <register_tm_clones>

400016b4 <main>:
400016b4:	fe010113          	addi	sp,sp,-32
400016b8:	00112e23          	sw	ra,28(sp)
400016bc:	00812c23          	sw	s0,24(sp)
400016c0:	00912a23          	sw	s1,20(sp)
400016c4:	02010413          	addi	s0,sp,32
400016c8:	00a00793          	li	a5,10
400016cc:	fef42423          	sw	a5,-24(s0)
400016d0:	fe842783          	lw	a5,-24(s0)
400016d4:	00279793          	slli	a5,a5,0x2
400016d8:	00078513          	mv	a0,a5
400016dc:	9c9ff0ef          	jal	ra,400010a4 <__wrap_sbrk>
400016e0:	00050793          	mv	a5,a0
400016e4:	fef42223          	sw	a5,-28(s0)
400016e8:	fe842783          	lw	a5,-24(s0)
400016ec:	00279793          	slli	a5,a5,0x2
400016f0:	00078513          	mv	a0,a5
400016f4:	9b1ff0ef          	jal	ra,400010a4 <__wrap_sbrk>
400016f8:	00050793          	mv	a5,a0
400016fc:	fef42023          	sw	a5,-32(s0)
40001700:	00100793          	li	a5,1
40001704:	fef42623          	sw	a5,-20(s0)
40001708:	0300006f          	j	40001738 <main+0x84>
4000170c:	fe442703          	lw	a4,-28(s0)
40001710:	fec42783          	lw	a5,-20(s0)
40001714:	00279793          	slli	a5,a5,0x2
40001718:	00f704b3          	add	s1,a4,a5
4000171c:	fec42503          	lw	a0,-20(s0)
40001720:	098000ef          	jal	ra,400017b8 <fib>
40001724:	00050793          	mv	a5,a0
40001728:	00f4a023          	sw	a5,0(s1)
4000172c:	fec42783          	lw	a5,-20(s0)
40001730:	00178793          	addi	a5,a5,1 # 1 <__reonv_start-0x40000fff>
40001734:	fef42623          	sw	a5,-20(s0)
40001738:	fec42703          	lw	a4,-20(s0)
4000173c:	fe842783          	lw	a5,-24(s0)
40001740:	fce7d6e3          	ble	a4,a5,4000170c <main+0x58>
40001744:	fe842783          	lw	a5,-24(s0)
40001748:	00279713          	slli	a4,a5,0x2
4000174c:	fe440793          	addi	a5,s0,-28
40001750:	00070613          	mv	a2,a4
40001754:	00078593          	mv	a1,a5
40001758:	00000513          	li	a0,0
4000175c:	93dff0ef          	jal	ra,40001098 <__wrap_write>
40001760:	fe842703          	lw	a4,-24(s0)
40001764:	00000793          	li	a5,0
40001768:	40e787b3          	sub	a5,a5,a4
4000176c:	00279793          	slli	a5,a5,0x2
40001770:	00100613          	li	a2,1
40001774:	00078593          	mv	a1,a5
40001778:	00000513          	li	a0,0
4000177c:	925ff0ef          	jal	ra,400010a0 <__wrap_lseek>
40001780:	fe842783          	lw	a5,-24(s0)
40001784:	00279713          	slli	a4,a5,0x2
40001788:	fe040793          	addi	a5,s0,-32
4000178c:	00070613          	mv	a2,a4
40001790:	00078593          	mv	a1,a5
40001794:	00000513          	li	a0,0
40001798:	905ff0ef          	jal	ra,4000109c <__wrap_read>
4000179c:	00000793          	li	a5,0
400017a0:	00078513          	mv	a0,a5
400017a4:	01c12083          	lw	ra,28(sp)
400017a8:	01812403          	lw	s0,24(sp)
400017ac:	01412483          	lw	s1,20(sp)
400017b0:	02010113          	addi	sp,sp,32
400017b4:	00008067          	ret

400017b8 <fib>:
400017b8:	fe010113          	addi	sp,sp,-32
400017bc:	00112e23          	sw	ra,28(sp)
400017c0:	00812c23          	sw	s0,24(sp)
400017c4:	00912a23          	sw	s1,20(sp)
400017c8:	02010413          	addi	s0,sp,32
400017cc:	fea42623          	sw	a0,-20(s0)
400017d0:	fec42703          	lw	a4,-20(s0)
400017d4:	00100793          	li	a5,1
400017d8:	00f70863          	beq	a4,a5,400017e8 <fib+0x30>
400017dc:	fec42703          	lw	a4,-20(s0)
400017e0:	00200793          	li	a5,2
400017e4:	00f71663          	bne	a4,a5,400017f0 <fib+0x38>
400017e8:	00100793          	li	a5,1
400017ec:	0300006f          	j	4000181c <fib+0x64>
400017f0:	fec42783          	lw	a5,-20(s0)
400017f4:	fff78793          	addi	a5,a5,-1
400017f8:	00078513          	mv	a0,a5
400017fc:	fbdff0ef          	jal	ra,400017b8 <fib>
40001800:	00050493          	mv	s1,a0
40001804:	fec42783          	lw	a5,-20(s0)
40001808:	ffe78793          	addi	a5,a5,-2
4000180c:	00078513          	mv	a0,a5
40001810:	fa9ff0ef          	jal	ra,400017b8 <fib>
40001814:	00050793          	mv	a5,a0
40001818:	00f487b3          	add	a5,s1,a5
4000181c:	00078513          	mv	a0,a5
40001820:	01c12083          	lw	ra,28(sp)
40001824:	01812403          	lw	s0,24(sp)
40001828:	01412483          	lw	s1,20(sp)
4000182c:	02010113          	addi	sp,sp,32
40001830:	00008067          	ret

40001834 <atexit>:
40001834:	00050593          	mv	a1,a0
40001838:	00000693          	li	a3,0
4000183c:	00000613          	li	a2,0
40001840:	00000513          	li	a0,0
40001844:	1f00006f          	j	40001a34 <__register_exitproc>

40001848 <__libc_fini_array>:
40001848:	ff010113          	addi	sp,sp,-16
4000184c:	400037b7          	lui	a5,0x40003
40001850:	40003737          	lui	a4,0x40003
40001854:	00812423          	sw	s0,8(sp)
40001858:	ae070713          	addi	a4,a4,-1312 # 40002ae0 <__init_array_end>
4000185c:	ae478413          	addi	s0,a5,-1308 # 40002ae4 <__fini_array_end>
40001860:	40e40433          	sub	s0,s0,a4
40001864:	00912223          	sw	s1,4(sp)
40001868:	01212023          	sw	s2,0(sp)
4000186c:	00112623          	sw	ra,12(sp)
40001870:	40245413          	srai	s0,s0,0x2
40001874:	00000493          	li	s1,0
40001878:	ae478913          	addi	s2,a5,-1308
4000187c:	00941e63          	bne	s0,s1,40001898 <__libc_fini_array+0x50>
40001880:	00812403          	lw	s0,8(sp)
40001884:	00c12083          	lw	ra,12(sp)
40001888:	00412483          	lw	s1,4(sp)
4000188c:	00012903          	lw	s2,0(sp)
40001890:	01010113          	addi	sp,sp,16
40001894:	d25ff06f          	j	400015b8 <_fini>
40001898:	ffc00593          	li	a1,-4
4000189c:	00048513          	mv	a0,s1
400018a0:	214000ef          	jal	ra,40001ab4 <__mulsi3>
400018a4:	00a90533          	add	a0,s2,a0
400018a8:	ffc52783          	lw	a5,-4(a0)
400018ac:	00148493          	addi	s1,s1,1
400018b0:	000780e7          	jalr	a5
400018b4:	fc9ff06f          	j	4000187c <__libc_fini_array+0x34>

400018b8 <__libc_init_array>:
400018b8:	ff010113          	addi	sp,sp,-16
400018bc:	00812423          	sw	s0,8(sp)
400018c0:	00912223          	sw	s1,4(sp)
400018c4:	40003437          	lui	s0,0x40003
400018c8:	400034b7          	lui	s1,0x40003
400018cc:	adc48793          	addi	a5,s1,-1316 # 40002adc <__frame_dummy_init_array_entry>
400018d0:	adc40413          	addi	s0,s0,-1316 # 40002adc <__frame_dummy_init_array_entry>
400018d4:	40f40433          	sub	s0,s0,a5
400018d8:	01212023          	sw	s2,0(sp)
400018dc:	00112623          	sw	ra,12(sp)
400018e0:	40245413          	srai	s0,s0,0x2
400018e4:	adc48493          	addi	s1,s1,-1316
400018e8:	00000913          	li	s2,0
400018ec:	04891263          	bne	s2,s0,40001930 <__libc_init_array+0x78>
400018f0:	400034b7          	lui	s1,0x40003
400018f4:	cc5ff0ef          	jal	ra,400015b8 <_fini>
400018f8:	40003437          	lui	s0,0x40003
400018fc:	adc48793          	addi	a5,s1,-1316 # 40002adc <__frame_dummy_init_array_entry>
40001900:	ae040413          	addi	s0,s0,-1312 # 40002ae0 <__init_array_end>
40001904:	40f40433          	sub	s0,s0,a5
40001908:	40245413          	srai	s0,s0,0x2
4000190c:	adc48493          	addi	s1,s1,-1316
40001910:	00000913          	li	s2,0
40001914:	02891863          	bne	s2,s0,40001944 <__libc_init_array+0x8c>
40001918:	00c12083          	lw	ra,12(sp)
4000191c:	00812403          	lw	s0,8(sp)
40001920:	00412483          	lw	s1,4(sp)
40001924:	00012903          	lw	s2,0(sp)
40001928:	01010113          	addi	sp,sp,16
4000192c:	00008067          	ret
40001930:	0004a783          	lw	a5,0(s1)
40001934:	00190913          	addi	s2,s2,1
40001938:	00448493          	addi	s1,s1,4
4000193c:	000780e7          	jalr	a5
40001940:	fadff06f          	j	400018ec <__libc_init_array+0x34>
40001944:	0004a783          	lw	a5,0(s1)
40001948:	00190913          	addi	s2,s2,1
4000194c:	00448493          	addi	s1,s1,4
40001950:	000780e7          	jalr	a5
40001954:	fc1ff06f          	j	40001914 <__libc_init_array+0x5c>

40001958 <memset>:
40001958:	00f00313          	li	t1,15
4000195c:	00050713          	mv	a4,a0
40001960:	02c37e63          	bleu	a2,t1,4000199c <memset+0x44>
40001964:	00f77793          	andi	a5,a4,15
40001968:	0a079063          	bnez	a5,40001a08 <memset+0xb0>
4000196c:	08059263          	bnez	a1,400019f0 <memset+0x98>
40001970:	ff067693          	andi	a3,a2,-16
40001974:	00f67613          	andi	a2,a2,15
40001978:	00e686b3          	add	a3,a3,a4
4000197c:	00b72023          	sw	a1,0(a4)
40001980:	00b72223          	sw	a1,4(a4)
40001984:	00b72423          	sw	a1,8(a4)
40001988:	00b72623          	sw	a1,12(a4)
4000198c:	01070713          	addi	a4,a4,16
40001990:	fed766e3          	bltu	a4,a3,4000197c <memset+0x24>
40001994:	00061463          	bnez	a2,4000199c <memset+0x44>
40001998:	00008067          	ret
4000199c:	40c306b3          	sub	a3,t1,a2
400019a0:	00269693          	slli	a3,a3,0x2
400019a4:	00000297          	auipc	t0,0x0
400019a8:	005686b3          	add	a3,a3,t0
400019ac:	00c68067          	jr	12(a3)
400019b0:	00b70723          	sb	a1,14(a4)
400019b4:	00b706a3          	sb	a1,13(a4)
400019b8:	00b70623          	sb	a1,12(a4)
400019bc:	00b705a3          	sb	a1,11(a4)
400019c0:	00b70523          	sb	a1,10(a4)
400019c4:	00b704a3          	sb	a1,9(a4)
400019c8:	00b70423          	sb	a1,8(a4)
400019cc:	00b703a3          	sb	a1,7(a4)
400019d0:	00b70323          	sb	a1,6(a4)
400019d4:	00b702a3          	sb	a1,5(a4)
400019d8:	00b70223          	sb	a1,4(a4)
400019dc:	00b701a3          	sb	a1,3(a4)
400019e0:	00b70123          	sb	a1,2(a4)
400019e4:	00b700a3          	sb	a1,1(a4)
400019e8:	00b70023          	sb	a1,0(a4)
400019ec:	00008067          	ret
400019f0:	0ff5f593          	andi	a1,a1,255
400019f4:	00859693          	slli	a3,a1,0x8
400019f8:	00d5e5b3          	or	a1,a1,a3
400019fc:	01059693          	slli	a3,a1,0x10
40001a00:	00d5e5b3          	or	a1,a1,a3
40001a04:	f6dff06f          	j	40001970 <memset+0x18>
40001a08:	00279693          	slli	a3,a5,0x2
40001a0c:	00000297          	auipc	t0,0x0
40001a10:	005686b3          	add	a3,a3,t0
40001a14:	00008293          	mv	t0,ra
40001a18:	fa0680e7          	jalr	-96(a3)
40001a1c:	00028093          	mv	ra,t0
40001a20:	ff078793          	addi	a5,a5,-16
40001a24:	40f70733          	sub	a4,a4,a5
40001a28:	00f60633          	add	a2,a2,a5
40001a2c:	f6c378e3          	bleu	a2,t1,4000199c <memset+0x44>
40001a30:	f3dff06f          	j	4000196c <memset+0x14>

40001a34 <__register_exitproc>:
40001a34:	400037b7          	lui	a5,0x40003
40001a38:	f147a703          	lw	a4,-236(a5) # 40002f14 <_global_impure_ptr>
40001a3c:	00050313          	mv	t1,a0
40001a40:	14872783          	lw	a5,328(a4)
40001a44:	00079663          	bnez	a5,40001a50 <__register_exitproc+0x1c>
40001a48:	14c70793          	addi	a5,a4,332
40001a4c:	14f72423          	sw	a5,328(a4)
40001a50:	0047a703          	lw	a4,4(a5)
40001a54:	01f00813          	li	a6,31
40001a58:	fff00513          	li	a0,-1
40001a5c:	04e84a63          	blt	a6,a4,40001ab0 <__register_exitproc+0x7c>
40001a60:	00271893          	slli	a7,a4,0x2
40001a64:	02030c63          	beqz	t1,40001a9c <__register_exitproc+0x68>
40001a68:	01178533          	add	a0,a5,a7
40001a6c:	08c52423          	sw	a2,136(a0)
40001a70:	1887a803          	lw	a6,392(a5)
40001a74:	00100613          	li	a2,1
40001a78:	00e61633          	sll	a2,a2,a4
40001a7c:	00c86833          	or	a6,a6,a2
40001a80:	1907a423          	sw	a6,392(a5)
40001a84:	10d52423          	sw	a3,264(a0)
40001a88:	00200693          	li	a3,2
40001a8c:	00d31863          	bne	t1,a3,40001a9c <__register_exitproc+0x68>
40001a90:	18c7a683          	lw	a3,396(a5)
40001a94:	00c6e633          	or	a2,a3,a2
40001a98:	18c7a623          	sw	a2,396(a5)
40001a9c:	00170713          	addi	a4,a4,1
40001aa0:	00e7a223          	sw	a4,4(a5)
40001aa4:	011787b3          	add	a5,a5,a7
40001aa8:	00b7a423          	sw	a1,8(a5)
40001aac:	00000513          	li	a0,0
40001ab0:	00008067          	ret

40001ab4 <__mulsi3>:
40001ab4:	00050613          	mv	a2,a0
40001ab8:	00000513          	li	a0,0
40001abc:	0015f693          	andi	a3,a1,1
40001ac0:	00068463          	beqz	a3,40001ac8 <__mulsi3+0x14>
40001ac4:	00c50533          	add	a0,a0,a2
40001ac8:	0015d593          	srli	a1,a1,0x1
40001acc:	00161613          	slli	a2,a2,0x1
40001ad0:	fe0596e3          	bnez	a1,40001abc <__mulsi3+0x8>
40001ad4:	00008067          	ret

Disassembly of section .eh_frame:

40001ad8 <__EH_FRAME_BEGIN__>:
40001ad8:	0000                	unimp
	...

Disassembly of section .init_array:

40002adc <__frame_dummy_init_array_entry>:
40002adc:	167c                	addi	a5,sp,812
40002ade:	4000                	lw	s0,0(s0)

Disassembly of section .fini_array:

40002ae0 <__do_global_dtors_aux_fini_array_entry>:
40002ae0:	1628                	addi	a0,sp,808
40002ae2:	4000                	lw	s0,0(s0)

Disassembly of section .data:

40002ae8 <impure_data>:
40002ae8:	0000                	unimp
40002aea:	0000                	unimp
40002aec:	2dd4                	fld	fa3,152(a1)
40002aee:	4000                	lw	s0,0(s0)
40002af0:	2e3c                	fld	fa5,88(a2)
40002af2:	4000                	lw	s0,0(s0)
40002af4:	2ea4                	fld	fs1,88(a3)
40002af6:	4000                	lw	s0,0(s0)
	...
40002b90:	0001                	nop
40002b92:	0000                	unimp
40002b94:	0000                	unimp
40002b96:	0000                	unimp
40002b98:	330e                	fld	ft6,224(sp)
40002b9a:	abcd                	j	4000318c <_end+0x254>
40002b9c:	1234                	addi	a3,sp,296
40002b9e:	e66d                	bnez	a2,40002c88 <impure_data+0x1a0>
40002ba0:	deec                	sw	a1,124(a3)
40002ba2:	0005                	c.nop	1
40002ba4:	0000000b          	0xb
	...

Disassembly of section .sdata:

40002f10 <__TMC_END__>:
40002f10:	0000                	unimp
	...

40002f14 <_global_impure_ptr>:
40002f14:	2ae8                	fld	fa0,208(a3)
40002f16:	4000                	lw	s0,0(s0)

40002f18 <_impure_ptr>:
40002f18:	2ae8                	fld	fa0,208(a3)
40002f1a:	4000                	lw	s0,0(s0)

Disassembly of section .bss:

40002f1c <__bss_start>:
40002f1c:	0000                	unimp
	...

40002f20 <object.5181>:
	...

Disassembly of section .comment:

00000000 <.comment>:
   0:	3a434347          	fmsub.d	ft6,ft6,ft4,ft7,rmm
   4:	2820                	fld	fs0,80(s0)
   6:	29554e47          	fmsub.s	ft8,fa0,fs5,ft5,rmm
   a:	3720                	fld	fs0,104(a4)
   c:	322e                	fld	ft4,232(sp)
   e:	302e                	fld	ft0,232(sp)
	...

Disassembly of section .debug_aranges:

00000000 <.debug_aranges>:
   0:	001c                	0x1c
   2:	0000                	unimp
   4:	0002                	c.slli	zero,0x0
   6:	0000                	unimp
   8:	0000                	unimp
   a:	0004                	0x4
   c:	0000                	unimp
   e:	0000                	unimp
  10:	1ab4                	addi	a3,sp,376
  12:	4000                	lw	s0,0(s0)
  14:	0024                	addi	s1,sp,8
	...

Disassembly of section .debug_info:

00000000 <.debug_info>:
   0:	0022                	c.slli	zero,0x8
   2:	0000                	unimp
   4:	0002                	c.slli	zero,0x0
   6:	0000                	unimp
   8:	0000                	unimp
   a:	0104                	addi	s1,sp,128
   c:	0000                	unimp
   e:	0000                	unimp
  10:	1ab4                	addi	a3,sp,376
  12:	4000                	lw	s0,0(s0)
  14:	1ad8                	addi	a4,sp,372
  16:	4000                	lw	s0,0(s0)
  18:	0000                	unimp
  1a:	0000                	unimp
  1c:	00000033          	add	zero,zero,zero
  20:	0094                	addi	a3,sp,64
  22:	0000                	unimp
  24:	8001                	srli	s0,s0,0x0

Disassembly of section .debug_abbrev:

00000000 <.debug_abbrev>:
   0:	1101                	addi	sp,sp,-32
   2:	1000                	addi	s0,sp,32
   4:	1106                	slli	sp,sp,0x21
   6:	1201                	addi	tp,tp,-32
   8:	0301                	addi	t1,t1,0
   a:	1b0e                	slli	s6,s6,0x23
   c:	250e                	fld	fa0,192(sp)
   e:	130e                	slli	t1,t1,0x23
  10:	0005                	c.nop	1
	...

Disassembly of section .debug_line:

00000000 <.debug_line>:
   0:	0000008f          	0x8f
   4:	0002                	c.slli	zero,0x0
   6:	0049                	c.nop	18
   8:	0000                	unimp
   a:	0101                	addi	sp,sp,0
   c:	000d0efb          	0xd0efb
  10:	0101                	addi	sp,sp,0
  12:	0101                	addi	sp,sp,0
  14:	0000                	unimp
  16:	0100                	addi	s0,sp,128
  18:	0000                	unimp
  1a:	2e01                	jal	32a <__reonv_start-0x40000cd6>
  1c:	2f2e                	fld	ft10,200(sp)
  1e:	2e2e                	fld	ft8,200(sp)
  20:	2f2e2e2f          	0x2f2e2e2f
  24:	2e2e                	fld	ft8,200(sp)
  26:	7369722f          	0x7369722f
  2a:	672d7663          	bleu	s2,s10,696 <__reonv_start-0x4000096a>
  2e:	6c2f6363          	bltu	t5,sp,6f4 <__reonv_start-0x4000090c>
  32:	6269                	lui	tp,0x1a
  34:	2f636367          	0x2f636367
  38:	666e6f63          	bltu	t3,t1,6b6 <__reonv_start-0x4000094a>
  3c:	6769                	lui	a4,0x1a
  3e:	7369722f          	0x7369722f
  42:	00007663          	bleu	zero,zero,4e <__reonv_start-0x40000fb2>
  46:	756d                	lui	a0,0xffffb
  48:	646c                	flw	fa1,76(s0)
  4a:	3369                	jal	fffffdd4 <__global_pointer$+0xbfffc6c4>
  4c:	532e                	lw	t1,232(sp)
  4e:	0100                	addi	s0,sp,128
  50:	0000                	unimp
  52:	0000                	unimp
  54:	0205                	addi	tp,tp,1
  56:	1ab4                	addi	a3,sp,376
  58:	4000                	lw	s0,0(s0)
  5a:	03012303          	lw	t1,48(sp)
  5e:	0901                	addi	s2,s2,0
  60:	0004                	0x4
  62:	0301                	addi	t1,t1,0
  64:	0902                	slli	s2,s2,0x0
  66:	0004                	0x4
  68:	0301                	addi	t1,t1,0
  6a:	0901                	addi	s2,s2,0
  6c:	0004                	0x4
  6e:	0301                	addi	t1,t1,0
  70:	0901                	addi	s2,s2,0
  72:	0004                	0x4
  74:	0301                	addi	t1,t1,0
  76:	0902                	slli	s2,s2,0x0
  78:	0004                	0x4
  7a:	0301                	addi	t1,t1,0
  7c:	0901                	addi	s2,s2,0
  7e:	0004                	0x4
  80:	0301                	addi	t1,t1,0
  82:	0901                	addi	s2,s2,0
  84:	0004                	0x4
  86:	0301                	addi	t1,t1,0
  88:	0901                	addi	s2,s2,0
  8a:	0004                	0x4
  8c:	0901                	addi	s2,s2,0
  8e:	0004                	0x4
  90:	0100                	addi	s0,sp,128
  92:	01              	Address 0x0000000000000092 is out of bounds.


Disassembly of section .debug_str:

00000000 <.debug_str>:
   0:	2e2e                	fld	ft8,200(sp)
   2:	2f2e2e2f          	0x2f2e2e2f
   6:	2e2e                	fld	ft8,200(sp)
   8:	2f2e2e2f          	0x2f2e2e2f
   c:	6972                	flw	fs2,28(sp)
   e:	2d766373          	csrrsi	t1,0x2d7,12
  12:	2f636367          	0x2f636367
  16:	696c                	flw	fa1,84(a0)
  18:	6762                	flw	fa4,24(sp)
  1a:	632f6363          	bltu	t5,s2,640 <__reonv_start-0x400009c0>
  1e:	69666e6f          	jal	t3,666b4 <__reonv_start-0x3ff9a94c>
  22:	69722f67          	0x69722f67
  26:	2f766373          	csrrsi	t1,0x2f7,12
  2a:	756d                	lui	a0,0xffffb
  2c:	646c                	flw	fa1,76(s0)
  2e:	3369                	jal	fffffdb8 <__global_pointer$+0xbfffc6a8>
  30:	532e                	lw	t1,232(sp)
  32:	2f00                	fld	fs0,24(a4)
  34:	6f68                	flw	fa0,92(a4)
  36:	656d                	lui	a0,0x1b
  38:	6f6f662f          	0x6f6f662f
  3c:	2f43492f          	0x2f43492f
  40:	6972                	flw	fs2,28(sp)
  42:	2d766373          	csrrsi	t1,0x2d7,12
  46:	656c                	flw	fa1,76(a0)
  48:	722f6e6f          	jal	t3,f676a <__reonv_start-0x3ff0a896>
  4c:	3376                	fld	ft6,376(sp)
  4e:	6932                	flw	fs2,12(sp)
  50:	742d                	lui	s0,0xfffeb
  52:	636c6f6f          	jal	t5,c6688 <__reonv_start-0x3ff3a978>
  56:	6168                	flw	fa0,68(a0)
  58:	6e69                	lui	t3,0x1a
  5a:	6975622f          	0x6975622f
  5e:	646c                	flw	fa1,76(s0)
  60:	6975622f          	0x6975622f
  64:	646c                	flw	fa1,76(s0)
  66:	672d                	lui	a4,0xb
  68:	6e2d6363          	bltu	s10,sp,74e <__reonv_start-0x400008b2>
  6c:	7765                	lui	a4,0xffff9
  6e:	696c                	flw	fa1,84(a0)
  70:	2d62                	fld	fs10,24(sp)
  72:	67617473          	csrrci	s0,0x676,2
  76:	3265                	jal	fffffa1e <__global_pointer$+0xbfffc30e>
  78:	7369722f          	0x7369722f
  7c:	32337663          	bleu	gp,t1,3a8 <__reonv_start-0x40000c58>
  80:	752d                	lui	a0,0xfffeb
  82:	6b6e                	flw	fs6,216(sp)
  84:	6f6e                	flw	ft10,216(sp)
  86:	652d6e77          	0x652d6e77
  8a:	666c                	flw	fa1,76(a2)
  8c:	62696c2f          	0x62696c2f
  90:	00636367          	0x636367
  94:	20554e47          	fmsub.s	ft8,fa0,ft5,ft4,rmm
  98:	5341                	li	t1,-16
  9a:	3220                	fld	fs0,96(a2)
  9c:	322e                	fld	ft4,232(sp)
  9e:	0039                	c.nop	14
