
main.out:     file format elf32-littleriscv


Disassembly of section .text:

40001000 <__reonv_start>:
40001000:	00000093          	li	ra,0
40001004:	00000113          	li	sp,0
40001008:	00000193          	li	gp,0
4000100c:	00000213          	li	tp,0
40001010:	00000293          	li	t0,0
40001014:	00000313          	li	t1,0
40001018:	00000393          	li	t2,0
4000101c:	00000413          	li	s0,0
40001020:	00000493          	li	s1,0
40001024:	00000513          	li	a0,0
40001028:	00000593          	li	a1,0
4000102c:	00000613          	li	a2,0
40001030:	00000693          	li	a3,0
40001034:	00000713          	li	a4,0
40001038:	00000793          	li	a5,0
4000103c:	00000813          	li	a6,0
40001040:	00000893          	li	a7,0
40001044:	00000913          	li	s2,0
40001048:	00000993          	li	s3,0
4000104c:	00000a13          	li	s4,0
40001050:	00000a93          	li	s5,0
40001054:	00000b13          	li	s6,0
40001058:	00000b93          	li	s7,0
4000105c:	00000c13          	li	s8,0
40001060:	00000c93          	li	s9,0
40001064:	00000d13          	li	s10,0
40001068:	00000d93          	li	s11,0
4000106c:	00000e13          	li	t3,0
40001070:	00000e93          	li	t4,0
40001074:	00000f13          	li	t5,0
40001078:	00000f93          	li	t6,0
4000107c:	44000137          	lui	sp,0x44000
40001080:	ff010113          	addi	sp,sp,-16 # 43fffff0 <__global_pointer$+0x3ffb8e8>
40001084:	62c000ef          	jal	ra,400016b0 <main>
40001088:	004000ef          	jal	ra,4000108c <__wrap_exit>

4000108c <__wrap_exit>:
4000108c:	01c0006f          	j	400010a8 <_exit_c>

40001090 <__wrap_open>:
40001090:	2840006f          	j	40001314 <_open_c>

40001094 <__wrap_close>:
40001094:	2b80006f          	j	4000134c <_close_c>

40001098 <__wrap_write>:
40001098:	1c80006f          	j	40001260 <_write_c>

4000109c <__wrap_read>:
4000109c:	1180006f          	j	400011b4 <_read_c>

400010a0 <__wrap_lseek>:
400010a0:	02c0006f          	j	400010cc <_lseek_c>

400010a4 <__wrap_sbrk>:
400010a4:	2d00006f          	j	40001374 <_sbrk_c>

400010a8 <_exit_c>:
400010a8:	fe010113          	addi	sp,sp,-32
400010ac:	00812e23          	sw	s0,28(sp)
400010b0:	02010413          	addi	s0,sp,32
400010b4:	fea42623          	sw	a0,-20(s0)
400010b8:	00100073          	ebreak
400010bc:	00000013          	nop
400010c0:	01c12403          	lw	s0,28(sp)
400010c4:	02010113          	addi	sp,sp,32
400010c8:	00008067          	ret

400010cc <_lseek_c>:
400010cc:	fe010113          	addi	sp,sp,-32
400010d0:	00812e23          	sw	s0,28(sp)
400010d4:	02010413          	addi	s0,sp,32
400010d8:	fea42623          	sw	a0,-20(s0)
400010dc:	feb42423          	sw	a1,-24(s0)
400010e0:	fec42223          	sw	a2,-28(s0)
400010e4:	fe442783          	lw	a5,-28(s0)
400010e8:	02079063          	bnez	a5,40001108 <_lseek_c+0x3c>
400010ec:	fe842703          	lw	a4,-24(s0)
400010f0:	440007b7          	lui	a5,0x44000
400010f4:	00f707b3          	add	a5,a4,a5
400010f8:	00078713          	mv	a4,a5
400010fc:	400017b7          	lui	a5,0x40001
40001100:	3ce7a023          	sw	a4,960(a5) # 400013c0 <out_mem>
40001104:	05c0006f          	j	40001160 <_lseek_c+0x94>
40001108:	fe442703          	lw	a4,-28(s0)
4000110c:	00100793          	li	a5,1
40001110:	02f71063          	bne	a4,a5,40001130 <_lseek_c+0x64>
40001114:	400017b7          	lui	a5,0x40001
40001118:	3c07a703          	lw	a4,960(a5) # 400013c0 <out_mem>
4000111c:	fe842783          	lw	a5,-24(s0)
40001120:	00f70733          	add	a4,a4,a5
40001124:	400017b7          	lui	a5,0x40001
40001128:	3ce7a023          	sw	a4,960(a5) # 400013c0 <out_mem>
4000112c:	0340006f          	j	40001160 <_lseek_c+0x94>
40001130:	fe442703          	lw	a4,-28(s0)
40001134:	00200793          	li	a5,2
40001138:	02f71063          	bne	a4,a5,40001158 <_lseek_c+0x8c>
4000113c:	fe842703          	lw	a4,-24(s0)
40001140:	450007b7          	lui	a5,0x45000
40001144:	00f707b3          	add	a5,a4,a5
40001148:	00078713          	mv	a4,a5
4000114c:	400017b7          	lui	a5,0x40001
40001150:	3ce7a023          	sw	a4,960(a5) # 400013c0 <out_mem>
40001154:	00c0006f          	j	40001160 <_lseek_c+0x94>
40001158:	fff00793          	li	a5,-1
4000115c:	0480006f          	j	400011a4 <_lseek_c+0xd8>
40001160:	400017b7          	lui	a5,0x40001
40001164:	3c07a703          	lw	a4,960(a5) # 400013c0 <out_mem>
40001168:	440007b7          	lui	a5,0x44000
4000116c:	00f77663          	bleu	a5,a4,40001178 <_lseek_c+0xac>
40001170:	fff00793          	li	a5,-1
40001174:	0300006f          	j	400011a4 <_lseek_c+0xd8>
40001178:	400017b7          	lui	a5,0x40001
4000117c:	3c07a703          	lw	a4,960(a5) # 400013c0 <out_mem>
40001180:	450007b7          	lui	a5,0x45000
40001184:	00e7f663          	bleu	a4,a5,40001190 <_lseek_c+0xc4>
40001188:	fff00793          	li	a5,-1
4000118c:	0180006f          	j	400011a4 <_lseek_c+0xd8>
40001190:	400017b7          	lui	a5,0x40001
40001194:	3c07a783          	lw	a5,960(a5) # 400013c0 <out_mem>
40001198:	00078713          	mv	a4,a5
4000119c:	bc0007b7          	lui	a5,0xbc000
400011a0:	00f707b3          	add	a5,a4,a5
400011a4:	00078513          	mv	a0,a5
400011a8:	01c12403          	lw	s0,28(sp)
400011ac:	02010113          	addi	sp,sp,32
400011b0:	00008067          	ret

400011b4 <_read_c>:
400011b4:	fd010113          	addi	sp,sp,-48
400011b8:	02812623          	sw	s0,44(sp)
400011bc:	03010413          	addi	s0,sp,48
400011c0:	fca42e23          	sw	a0,-36(s0)
400011c4:	fcb42c23          	sw	a1,-40(s0)
400011c8:	fcc42a23          	sw	a2,-44(s0)
400011cc:	fdc42283          	lw	t0,-36(s0)
400011d0:	fd842303          	lw	t1,-40(s0)
400011d4:	fd442383          	lw	t2,-44(s0)
400011d8:	fe042623          	sw	zero,-20(s0)
400011dc:	0340006f          	j	40001210 <_read_c+0x5c>
400011e0:	400017b7          	lui	a5,0x40001
400011e4:	3c07a703          	lw	a4,960(a5) # 400013c0 <out_mem>
400011e8:	fec42783          	lw	a5,-20(s0)
400011ec:	00f70733          	add	a4,a4,a5
400011f0:	fec42783          	lw	a5,-20(s0)
400011f4:	fd842683          	lw	a3,-40(s0)
400011f8:	00f687b3          	add	a5,a3,a5
400011fc:	00074703          	lbu	a4,0(a4)
40001200:	00e78023          	sb	a4,0(a5)
40001204:	fec42783          	lw	a5,-20(s0)
40001208:	00178793          	addi	a5,a5,1
4000120c:	fef42623          	sw	a5,-20(s0)
40001210:	fec42703          	lw	a4,-20(s0)
40001214:	fd442783          	lw	a5,-44(s0)
40001218:	00f75e63          	ble	a5,a4,40001234 <_read_c+0x80>
4000121c:	400017b7          	lui	a5,0x40001
40001220:	3c07a703          	lw	a4,960(a5) # 400013c0 <out_mem>
40001224:	fec42783          	lw	a5,-20(s0)
40001228:	00f70733          	add	a4,a4,a5
4000122c:	450007b7          	lui	a5,0x45000
40001230:	faf768e3          	bltu	a4,a5,400011e0 <_read_c+0x2c>
40001234:	400017b7          	lui	a5,0x40001
40001238:	3c07a703          	lw	a4,960(a5) # 400013c0 <out_mem>
4000123c:	fec42783          	lw	a5,-20(s0)
40001240:	00f70733          	add	a4,a4,a5
40001244:	400017b7          	lui	a5,0x40001
40001248:	3ce7a023          	sw	a4,960(a5) # 400013c0 <out_mem>
4000124c:	fec42783          	lw	a5,-20(s0)
40001250:	00078513          	mv	a0,a5
40001254:	02c12403          	lw	s0,44(sp)
40001258:	03010113          	addi	sp,sp,48
4000125c:	00008067          	ret

40001260 <_write_c>:
40001260:	fd010113          	addi	sp,sp,-48
40001264:	02812623          	sw	s0,44(sp)
40001268:	03010413          	addi	s0,sp,48
4000126c:	fca42e23          	sw	a0,-36(s0)
40001270:	fcb42c23          	sw	a1,-40(s0)
40001274:	fcc42a23          	sw	a2,-44(s0)
40001278:	fdc42283          	lw	t0,-36(s0)
4000127c:	fd842303          	lw	t1,-40(s0)
40001280:	fd442383          	lw	t2,-44(s0)
40001284:	fe042623          	sw	zero,-20(s0)
40001288:	03c0006f          	j	400012c4 <_write_c+0x64>
4000128c:	fec42783          	lw	a5,-20(s0)
40001290:	fd842703          	lw	a4,-40(s0)
40001294:	00f70733          	add	a4,a4,a5
40001298:	400017b7          	lui	a5,0x40001
4000129c:	3c47a783          	lw	a5,964(a5) # 400013c4 <console>
400012a0:	00074703          	lbu	a4,0(a4)
400012a4:	00e78023          	sb	a4,0(a5)
400012a8:	00000013          	nop
400012ac:	400017b7          	lui	a5,0x40001
400012b0:	3c87a783          	lw	a5,968(a5) # 400013c8 <uart_shifter>
400012b4:	0007a783          	lw	a5,0(a5)
400012b8:	fec42783          	lw	a5,-20(s0)
400012bc:	00178793          	addi	a5,a5,1
400012c0:	fef42623          	sw	a5,-20(s0)
400012c4:	fec42703          	lw	a4,-20(s0)
400012c8:	fd442783          	lw	a5,-44(s0)
400012cc:	00f75e63          	ble	a5,a4,400012e8 <_write_c+0x88>
400012d0:	400017b7          	lui	a5,0x40001
400012d4:	3c07a703          	lw	a4,960(a5) # 400013c0 <out_mem>
400012d8:	fec42783          	lw	a5,-20(s0)
400012dc:	00f70733          	add	a4,a4,a5
400012e0:	450007b7          	lui	a5,0x45000
400012e4:	faf764e3          	bltu	a4,a5,4000128c <_write_c+0x2c>
400012e8:	400017b7          	lui	a5,0x40001
400012ec:	3c07a703          	lw	a4,960(a5) # 400013c0 <out_mem>
400012f0:	fec42783          	lw	a5,-20(s0)
400012f4:	00f70733          	add	a4,a4,a5
400012f8:	400017b7          	lui	a5,0x40001
400012fc:	3ce7a023          	sw	a4,960(a5) # 400013c0 <out_mem>
40001300:	fec42783          	lw	a5,-20(s0)
40001304:	00078513          	mv	a0,a5
40001308:	02c12403          	lw	s0,44(sp)
4000130c:	03010113          	addi	sp,sp,48
40001310:	00008067          	ret

40001314 <_open_c>:
40001314:	fe010113          	addi	sp,sp,-32
40001318:	00812e23          	sw	s0,28(sp)
4000131c:	02010413          	addi	s0,sp,32
40001320:	fea42623          	sw	a0,-20(s0)
40001324:	feb42423          	sw	a1,-24(s0)
40001328:	fec42223          	sw	a2,-28(s0)
4000132c:	fec42283          	lw	t0,-20(s0)
40001330:	fe842303          	lw	t1,-24(s0)
40001334:	fe442383          	lw	t2,-28(s0)
40001338:	00000793          	li	a5,0
4000133c:	00078513          	mv	a0,a5
40001340:	01c12403          	lw	s0,28(sp)
40001344:	02010113          	addi	sp,sp,32
40001348:	00008067          	ret

4000134c <_close_c>:
4000134c:	fe010113          	addi	sp,sp,-32
40001350:	00812e23          	sw	s0,28(sp)
40001354:	02010413          	addi	s0,sp,32
40001358:	fea42623          	sw	a0,-20(s0)
4000135c:	fec42283          	lw	t0,-20(s0)
40001360:	00000793          	li	a5,0
40001364:	00078513          	mv	a0,a5
40001368:	01c12403          	lw	s0,28(sp)
4000136c:	02010113          	addi	sp,sp,32
40001370:	00008067          	ret

40001374 <_sbrk_c>:
40001374:	fd010113          	addi	sp,sp,-48
40001378:	02812623          	sw	s0,44(sp)
4000137c:	03010413          	addi	s0,sp,48
40001380:	fca42e23          	sw	a0,-36(s0)
40001384:	400017b7          	lui	a5,0x40001
40001388:	3bc7a783          	lw	a5,956(a5) # 400013bc <heap>
4000138c:	fef42623          	sw	a5,-20(s0)
40001390:	400017b7          	lui	a5,0x40001
40001394:	3bc7a703          	lw	a4,956(a5) # 400013bc <heap>
40001398:	fdc42783          	lw	a5,-36(s0)
4000139c:	00f70733          	add	a4,a4,a5
400013a0:	400017b7          	lui	a5,0x40001
400013a4:	3ae7ae23          	sw	a4,956(a5) # 400013bc <heap>
400013a8:	fec42783          	lw	a5,-20(s0)
400013ac:	00078513          	mv	a0,a5
400013b0:	02c12403          	lw	s0,44(sp)
400013b4:	03010113          	addi	sp,sp,48
400013b8:	00008067          	ret

400013bc <heap>:
400013bc:	0000                	unimp
400013be:	4300                	lw	s0,0(a4)

400013c0 <out_mem>:
400013c0:	0000                	unimp
400013c2:	4400                	lw	s0,8(s0)

400013c4 <console>:
400013c4:	0100                	addi	s0,sp,128
400013c6:	8000                	0x8000

400013c8 <uart_shifter>:
400013c8:	0104                	addi	s1,sp,128
400013ca:	8000                	0x8000
400013cc:	3a434347          	fmsub.d	ft6,ft6,ft4,ft7,rmm
400013d0:	2820                	fld	fs0,80(s0)
400013d2:	29554e47          	fmsub.s	ft8,fa0,fs5,ft5,rmm
400013d6:	3720                	fld	fs0,104(a4)
400013d8:	322e                	fld	ft4,232(sp)
400013da:	302e                	fld	ft0,232(sp)
400013dc:	0000                	unimp
	...

400013e0 <apbuart_outbyte_polled>:
400013e0:	fe010113          	addi	sp,sp,-32
400013e4:	00812e23          	sw	s0,28(sp)
400013e8:	02010413          	addi	s0,sp,32
400013ec:	00050793          	mv	a5,a0
400013f0:	feb42423          	sw	a1,-24(s0)
400013f4:	fec42223          	sw	a2,-28(s0)
400013f8:	fef407a3          	sb	a5,-17(s0)
400013fc:	0240006f          	j	40001420 <apbuart_outbyte_polled+0x40>
40001400:	00000013          	nop
40001404:	00000013          	nop
40001408:	00000013          	nop
4000140c:	00000013          	nop
40001410:	00000013          	nop
40001414:	00000013          	nop
40001418:	00000013          	nop
4000141c:	00000013          	nop
40001420:	400017b7          	lui	a5,0x40001
40001424:	5747a783          	lw	a5,1396(a5) # 40001574 <uart_regs>
40001428:	0047a783          	lw	a5,4(a5)
4000142c:	0047f793          	andi	a5,a5,4
40001430:	fc0788e3          	beqz	a5,40001400 <apbuart_outbyte_polled+0x20>
40001434:	fef44703          	lbu	a4,-17(s0)
40001438:	00a00793          	li	a5,10
4000143c:	02f71263          	bne	a4,a5,40001460 <apbuart_outbyte_polled+0x80>
40001440:	fe842783          	lw	a5,-24(s0)
40001444:	00078e63          	beqz	a5,40001460 <apbuart_outbyte_polled+0x80>
40001448:	400017b7          	lui	a5,0x40001
4000144c:	5747a783          	lw	a5,1396(a5) # 40001574 <uart_regs>
40001450:	00d00713          	li	a4,13
40001454:	00e7a023          	sw	a4,0(a5)
40001458:	fe042423          	sw	zero,-24(s0)
4000145c:	fa1ff06f          	j	400013fc <apbuart_outbyte_polled+0x1c>
40001460:	400017b7          	lui	a5,0x40001
40001464:	5747a783          	lw	a5,1396(a5) # 40001574 <uart_regs>
40001468:	fef44703          	lbu	a4,-17(s0)
4000146c:	00e7a023          	sw	a4,0(a5)
40001470:	fe442783          	lw	a5,-28(s0)
40001474:	00078e63          	beqz	a5,40001490 <apbuart_outbyte_polled+0xb0>
40001478:	00000013          	nop
4000147c:	400017b7          	lui	a5,0x40001
40001480:	5747a783          	lw	a5,1396(a5) # 40001574 <uart_regs>
40001484:	0047a783          	lw	a5,4(a5)
40001488:	0047f793          	andi	a5,a5,4
4000148c:	fe0788e3          	beqz	a5,4000147c <apbuart_outbyte_polled+0x9c>
40001490:	00000013          	nop
40001494:	01c12403          	lw	s0,28(sp)
40001498:	02010113          	addi	sp,sp,32
4000149c:	00008067          	ret

400014a0 <apbuart_write_polled>:
400014a0:	fd010113          	addi	sp,sp,-48
400014a4:	02112623          	sw	ra,44(sp)
400014a8:	02812423          	sw	s0,40(sp)
400014ac:	03010413          	addi	s0,sp,48
400014b0:	fca42e23          	sw	a0,-36(s0)
400014b4:	fcb42c23          	sw	a1,-40(s0)
400014b8:	fe042623          	sw	zero,-20(s0)
400014bc:	0300006f          	j	400014ec <apbuart_write_polled+0x4c>
400014c0:	fdc42783          	lw	a5,-36(s0)
400014c4:	00178713          	addi	a4,a5,1
400014c8:	fce42e23          	sw	a4,-36(s0)
400014cc:	0007c783          	lbu	a5,0(a5)
400014d0:	00100613          	li	a2,1
400014d4:	00000593          	li	a1,0
400014d8:	00078513          	mv	a0,a5
400014dc:	f05ff0ef          	jal	ra,400013e0 <apbuart_outbyte_polled>
400014e0:	fec42783          	lw	a5,-20(s0)
400014e4:	00178793          	addi	a5,a5,1
400014e8:	fef42623          	sw	a5,-20(s0)
400014ec:	fec42703          	lw	a4,-20(s0)
400014f0:	fd842783          	lw	a5,-40(s0)
400014f4:	fcf766e3          	bltu	a4,a5,400014c0 <apbuart_write_polled+0x20>
400014f8:	00000013          	nop
400014fc:	02c12083          	lw	ra,44(sp)
40001500:	02812403          	lw	s0,40(sp)
40001504:	03010113          	addi	sp,sp,48
40001508:	00008067          	ret

4000150c <bsp_debug_uart_init>:
4000150c:	ff010113          	addi	sp,sp,-16
40001510:	00812623          	sw	s0,12(sp)
40001514:	01010413          	addi	s0,sp,16
40001518:	400017b7          	lui	a5,0x40001
4000151c:	5747a783          	lw	a5,1396(a5) # 40001574 <uart_regs>
40001520:	0087a703          	lw	a4,8(a5)
40001524:	400017b7          	lui	a5,0x40001
40001528:	5747a783          	lw	a5,1396(a5) # 40001574 <uart_regs>
4000152c:	00376713          	ori	a4,a4,3
40001530:	00e7a423          	sw	a4,8(a5)
40001534:	400017b7          	lui	a5,0x40001
40001538:	5747a783          	lw	a5,1396(a5) # 40001574 <uart_regs>
4000153c:	0007a223          	sw	zero,4(a5)
40001540:	00000013          	nop
40001544:	00c12403          	lw	s0,12(sp)
40001548:	01010113          	addi	sp,sp,16
4000154c:	00008067          	ret

40001550 <pre_printk_dbgbuf>:
	...

40001570 <pre_printk_pos>:
40001570:	0000                	unimp
	...

40001574 <uart_regs>:
40001574:	0100                	addi	s0,sp,128
40001576:	8000                	0x8000

40001578 <_start>:
40001578:	00003197          	auipc	gp,0x3
4000157c:	19018193          	addi	gp,gp,400 # 40004708 <__global_pointer$>
40001580:	81418513          	addi	a0,gp,-2028 # 40003f1c <_edata>
40001584:	86c18613          	addi	a2,gp,-1940 # 40003f74 <_end>
40001588:	40a60633          	sub	a2,a2,a0
4000158c:	00000593          	li	a1,0
40001590:	390000ef          	jal	ra,40001920 <memset>
40001594:	00000517          	auipc	a0,0x0
40001598:	27c50513          	addi	a0,a0,636 # 40001810 <__libc_fini_array>
4000159c:	260000ef          	jal	ra,400017fc <atexit>
400015a0:	2e0000ef          	jal	ra,40001880 <__libc_init_array>
400015a4:	00012503          	lw	a0,0(sp)
400015a8:	00410593          	addi	a1,sp,4
400015ac:	00000613          	li	a2,0
400015b0:	100000ef          	jal	ra,400016b0 <main>
400015b4:	ad9ff06f          	j	4000108c <__wrap_exit>

400015b8 <_fini>:
400015b8:	00008067          	ret

400015bc <deregister_tm_clones>:
400015bc:	40004537          	lui	a0,0x40004
400015c0:	400047b7          	lui	a5,0x40004
400015c4:	f0850713          	addi	a4,a0,-248 # 40003f08 <__TMC_END__>
400015c8:	f0878793          	addi	a5,a5,-248 # 40003f08 <__TMC_END__>
400015cc:	00e78c63          	beq	a5,a4,400015e4 <deregister_tm_clones+0x28>
400015d0:	00000337          	lui	t1,0x0
400015d4:	00030313          	mv	t1,t1
400015d8:	00030663          	beqz	t1,400015e4 <deregister_tm_clones+0x28>
400015dc:	f0850513          	addi	a0,a0,-248
400015e0:	00030067          	jr	t1
400015e4:	00008067          	ret

400015e8 <register_tm_clones>:
400015e8:	400047b7          	lui	a5,0x40004
400015ec:	40004537          	lui	a0,0x40004
400015f0:	f0878593          	addi	a1,a5,-248 # 40003f08 <__TMC_END__>
400015f4:	f0850793          	addi	a5,a0,-248 # 40003f08 <__TMC_END__>
400015f8:	40f585b3          	sub	a1,a1,a5
400015fc:	4025d593          	srai	a1,a1,0x2
40001600:	01f5d793          	srli	a5,a1,0x1f
40001604:	00b785b3          	add	a1,a5,a1
40001608:	4015d593          	srai	a1,a1,0x1
4000160c:	00058c63          	beqz	a1,40001624 <register_tm_clones+0x3c>
40001610:	00000337          	lui	t1,0x0
40001614:	00030313          	mv	t1,t1
40001618:	00030663          	beqz	t1,40001624 <register_tm_clones+0x3c>
4000161c:	f0850513          	addi	a0,a0,-248
40001620:	00030067          	jr	t1
40001624:	00008067          	ret

40001628 <__do_global_dtors_aux>:
40001628:	8241c703          	lbu	a4,-2012(gp) # 40003f2c <completed.5176>
4000162c:	04071663          	bnez	a4,40001678 <__do_global_dtors_aux+0x50>
40001630:	ff010113          	addi	sp,sp,-16
40001634:	00812423          	sw	s0,8(sp)
40001638:	00112623          	sw	ra,12(sp)
4000163c:	00078413          	mv	s0,a5
40001640:	f7dff0ef          	jal	ra,400015bc <deregister_tm_clones>
40001644:	000007b7          	lui	a5,0x0
40001648:	00078793          	mv	a5,a5
4000164c:	00078a63          	beqz	a5,40001660 <__do_global_dtors_aux+0x38>
40001650:	40002537          	lui	a0,0x40002
40001654:	6c850513          	addi	a0,a0,1736 # 400026c8 <__EH_FRAME_BEGIN__>
40001658:	bffff097          	auipc	ra,0xbffff
4000165c:	9a8080e7          	jalr	-1624(ra) # 0 <__reonv_start-0x40001000>
40001660:	00100793          	li	a5,1
40001664:	82f18223          	sb	a5,-2012(gp) # 40003f2c <completed.5176>
40001668:	00c12083          	lw	ra,12(sp)
4000166c:	00812403          	lw	s0,8(sp)
40001670:	01010113          	addi	sp,sp,16
40001674:	00008067          	ret
40001678:	00008067          	ret

4000167c <frame_dummy>:
4000167c:	000007b7          	lui	a5,0x0
40001680:	00078793          	mv	a5,a5
40001684:	02078463          	beqz	a5,400016ac <frame_dummy+0x30>
40001688:	40002537          	lui	a0,0x40002
4000168c:	ff010113          	addi	sp,sp,-16
40001690:	82818593          	addi	a1,gp,-2008 # 40003f30 <object.5181>
40001694:	6c850513          	addi	a0,a0,1736 # 400026c8 <__EH_FRAME_BEGIN__>
40001698:	00112623          	sw	ra,12(sp)
4000169c:	bffff097          	auipc	ra,0xbffff
400016a0:	964080e7          	jalr	-1692(ra) # 0 <__reonv_start-0x40001000>
400016a4:	00c12083          	lw	ra,12(sp)
400016a8:	01010113          	addi	sp,sp,16
400016ac:	f3dff06f          	j	400015e8 <register_tm_clones>

400016b0 <main>:
400016b0:	fe010113          	addi	sp,sp,-32
400016b4:	00112e23          	sw	ra,28(sp)
400016b8:	00812c23          	sw	s0,24(sp)
400016bc:	02010413          	addi	s0,sp,32
400016c0:	dddde7b7          	lui	a5,0xdddde
400016c4:	ddd78793          	addi	a5,a5,-547 # dddddddd <__global_pointer$+0x9ddd96d5>
400016c8:	fef42623          	sw	a5,-20(s0)
400016cc:	01000513          	li	a0,16
400016d0:	32c000ef          	jal	ra,400019fc <sbrk>
400016d4:	00050793          	mv	a5,a0
400016d8:	fef42423          	sw	a5,-24(s0)
400016dc:	00800513          	li	a0,8
400016e0:	31c000ef          	jal	ra,400019fc <sbrk>
400016e4:	00050793          	mv	a5,a0
400016e8:	fef42223          	sw	a5,-28(s0)
400016ec:	ccccd7b7          	lui	a5,0xccccd
400016f0:	ccc78793          	addi	a5,a5,-820 # cccccccc <__global_pointer$+0x8ccc85c4>
400016f4:	fef42023          	sw	a5,-32(s0)
400016f8:	fe842783          	lw	a5,-24(s0)
400016fc:	aaaac737          	lui	a4,0xaaaac
40001700:	bbb70713          	addi	a4,a4,-1093 # aaaabbbb <__global_pointer$+0x6aaa74b3>
40001704:	00e7a023          	sw	a4,0(a5)
40001708:	fe842783          	lw	a5,-24(s0)
4000170c:	00478793          	addi	a5,a5,4
40001710:	cccce737          	lui	a4,0xcccce
40001714:	ddd70713          	addi	a4,a4,-547 # ccccdddd <__global_pointer$+0x8ccc96d5>
40001718:	00e7a023          	sw	a4,0(a5)
4000171c:	fe842783          	lw	a5,-24(s0)
40001720:	00878793          	addi	a5,a5,8
40001724:	eeef0737          	lui	a4,0xeeef0
40001728:	fff70713          	addi	a4,a4,-1 # eeeeffff <__global_pointer$+0xaeeeb8f7>
4000172c:	00e7a023          	sw	a4,0(a5)
40001730:	fe842783          	lw	a5,-24(s0)
40001734:	00c78793          	addi	a5,a5,12
40001738:	1111b737          	lui	a4,0x1111b
4000173c:	aaa70713          	addi	a4,a4,-1366 # 1111aaaa <__reonv_start-0x2eee6556>
40001740:	00e7a023          	sw	a4,0(a5)
40001744:	fe442783          	lw	a5,-28(s0)
40001748:	2222c737          	lui	a4,0x2222c
4000174c:	bbb70713          	addi	a4,a4,-1093 # 2222bbbb <__reonv_start-0x1ddd5445>
40001750:	00e7a023          	sw	a4,0(a5)
40001754:	fe442783          	lw	a5,-28(s0)
40001758:	00478793          	addi	a5,a5,4
4000175c:	3333d737          	lui	a4,0x3333d
40001760:	ccc70713          	addi	a4,a4,-820 # 3333cccc <__reonv_start-0xccc4334>
40001764:	00e7a023          	sw	a4,0(a5)
40001768:	00000793          	li	a5,0
4000176c:	00078513          	mv	a0,a5
40001770:	01c12083          	lw	ra,28(sp)
40001774:	01812403          	lw	s0,24(sp)
40001778:	02010113          	addi	sp,sp,32
4000177c:	00008067          	ret

40001780 <fib>:
40001780:	fe010113          	addi	sp,sp,-32
40001784:	00112e23          	sw	ra,28(sp)
40001788:	00812c23          	sw	s0,24(sp)
4000178c:	00912a23          	sw	s1,20(sp)
40001790:	02010413          	addi	s0,sp,32
40001794:	fea42623          	sw	a0,-20(s0)
40001798:	fec42703          	lw	a4,-20(s0)
4000179c:	00100793          	li	a5,1
400017a0:	00f70863          	beq	a4,a5,400017b0 <fib+0x30>
400017a4:	fec42703          	lw	a4,-20(s0)
400017a8:	00200793          	li	a5,2
400017ac:	00f71663          	bne	a4,a5,400017b8 <fib+0x38>
400017b0:	00100793          	li	a5,1
400017b4:	0300006f          	j	400017e4 <fib+0x64>
400017b8:	fec42783          	lw	a5,-20(s0)
400017bc:	fff78793          	addi	a5,a5,-1
400017c0:	00078513          	mv	a0,a5
400017c4:	fbdff0ef          	jal	ra,40001780 <fib>
400017c8:	00050493          	mv	s1,a0
400017cc:	fec42783          	lw	a5,-20(s0)
400017d0:	ffe78793          	addi	a5,a5,-2
400017d4:	00078513          	mv	a0,a5
400017d8:	fa9ff0ef          	jal	ra,40001780 <fib>
400017dc:	00050793          	mv	a5,a0
400017e0:	00f487b3          	add	a5,s1,a5
400017e4:	00078513          	mv	a0,a5
400017e8:	01c12083          	lw	ra,28(sp)
400017ec:	01812403          	lw	s0,24(sp)
400017f0:	01412483          	lw	s1,20(sp)
400017f4:	02010113          	addi	sp,sp,32
400017f8:	00008067          	ret

400017fc <atexit>:
400017fc:	00050593          	mv	a1,a0
40001800:	00000693          	li	a3,0
40001804:	00000613          	li	a2,0
40001808:	00000513          	li	a0,0
4000180c:	1fc0006f          	j	40001a08 <__register_exitproc>

40001810 <__libc_fini_array>:
40001810:	ff010113          	addi	sp,sp,-16
40001814:	400037b7          	lui	a5,0x40003
40001818:	40003737          	lui	a4,0x40003
4000181c:	00812423          	sw	s0,8(sp)
40001820:	6d070713          	addi	a4,a4,1744 # 400036d0 <__init_array_end>
40001824:	6d478413          	addi	s0,a5,1748 # 400036d4 <__fini_array_end>
40001828:	40e40433          	sub	s0,s0,a4
4000182c:	00912223          	sw	s1,4(sp)
40001830:	01212023          	sw	s2,0(sp)
40001834:	00112623          	sw	ra,12(sp)
40001838:	40245413          	srai	s0,s0,0x2
4000183c:	00000493          	li	s1,0
40001840:	6d478913          	addi	s2,a5,1748
40001844:	00941e63          	bne	s0,s1,40001860 <__libc_fini_array+0x50>
40001848:	00812403          	lw	s0,8(sp)
4000184c:	00c12083          	lw	ra,12(sp)
40001850:	00412483          	lw	s1,4(sp)
40001854:	00012903          	lw	s2,0(sp)
40001858:	01010113          	addi	sp,sp,16
4000185c:	d5dff06f          	j	400015b8 <_fini>
40001860:	ffc00593          	li	a1,-4
40001864:	00048513          	mv	a0,s1
40001868:	63d000ef          	jal	ra,400026a4 <__mulsi3>
4000186c:	00a90533          	add	a0,s2,a0
40001870:	ffc52783          	lw	a5,-4(a0)
40001874:	00148493          	addi	s1,s1,1
40001878:	000780e7          	jalr	a5
4000187c:	fc9ff06f          	j	40001844 <__libc_fini_array+0x34>

40001880 <__libc_init_array>:
40001880:	ff010113          	addi	sp,sp,-16
40001884:	00812423          	sw	s0,8(sp)
40001888:	00912223          	sw	s1,4(sp)
4000188c:	40003437          	lui	s0,0x40003
40001890:	400034b7          	lui	s1,0x40003
40001894:	6cc48793          	addi	a5,s1,1740 # 400036cc <__frame_dummy_init_array_entry>
40001898:	6cc40413          	addi	s0,s0,1740 # 400036cc <__frame_dummy_init_array_entry>
4000189c:	40f40433          	sub	s0,s0,a5
400018a0:	01212023          	sw	s2,0(sp)
400018a4:	00112623          	sw	ra,12(sp)
400018a8:	40245413          	srai	s0,s0,0x2
400018ac:	6cc48493          	addi	s1,s1,1740
400018b0:	00000913          	li	s2,0
400018b4:	04891263          	bne	s2,s0,400018f8 <__libc_init_array+0x78>
400018b8:	400034b7          	lui	s1,0x40003
400018bc:	cfdff0ef          	jal	ra,400015b8 <_fini>
400018c0:	40003437          	lui	s0,0x40003
400018c4:	6cc48793          	addi	a5,s1,1740 # 400036cc <__frame_dummy_init_array_entry>
400018c8:	6d040413          	addi	s0,s0,1744 # 400036d0 <__init_array_end>
400018cc:	40f40433          	sub	s0,s0,a5
400018d0:	40245413          	srai	s0,s0,0x2
400018d4:	6cc48493          	addi	s1,s1,1740
400018d8:	00000913          	li	s2,0
400018dc:	02891863          	bne	s2,s0,4000190c <__libc_init_array+0x8c>
400018e0:	00c12083          	lw	ra,12(sp)
400018e4:	00812403          	lw	s0,8(sp)
400018e8:	00412483          	lw	s1,4(sp)
400018ec:	00012903          	lw	s2,0(sp)
400018f0:	01010113          	addi	sp,sp,16
400018f4:	00008067          	ret
400018f8:	0004a783          	lw	a5,0(s1)
400018fc:	00190913          	addi	s2,s2,1
40001900:	00448493          	addi	s1,s1,4
40001904:	000780e7          	jalr	a5
40001908:	fadff06f          	j	400018b4 <__libc_init_array+0x34>
4000190c:	0004a783          	lw	a5,0(s1)
40001910:	00190913          	addi	s2,s2,1
40001914:	00448493          	addi	s1,s1,4
40001918:	000780e7          	jalr	a5
4000191c:	fc1ff06f          	j	400018dc <__libc_init_array+0x5c>

40001920 <memset>:
40001920:	00f00313          	li	t1,15
40001924:	00050713          	mv	a4,a0
40001928:	02c37e63          	bleu	a2,t1,40001964 <memset+0x44>
4000192c:	00f77793          	andi	a5,a4,15
40001930:	0a079063          	bnez	a5,400019d0 <memset+0xb0>
40001934:	08059263          	bnez	a1,400019b8 <memset+0x98>
40001938:	ff067693          	andi	a3,a2,-16
4000193c:	00f67613          	andi	a2,a2,15
40001940:	00e686b3          	add	a3,a3,a4
40001944:	00b72023          	sw	a1,0(a4)
40001948:	00b72223          	sw	a1,4(a4)
4000194c:	00b72423          	sw	a1,8(a4)
40001950:	00b72623          	sw	a1,12(a4)
40001954:	01070713          	addi	a4,a4,16
40001958:	fed766e3          	bltu	a4,a3,40001944 <memset+0x24>
4000195c:	00061463          	bnez	a2,40001964 <memset+0x44>
40001960:	00008067          	ret
40001964:	40c306b3          	sub	a3,t1,a2
40001968:	00269693          	slli	a3,a3,0x2
4000196c:	00000297          	auipc	t0,0x0
40001970:	005686b3          	add	a3,a3,t0
40001974:	00c68067          	jr	12(a3)
40001978:	00b70723          	sb	a1,14(a4)
4000197c:	00b706a3          	sb	a1,13(a4)
40001980:	00b70623          	sb	a1,12(a4)
40001984:	00b705a3          	sb	a1,11(a4)
40001988:	00b70523          	sb	a1,10(a4)
4000198c:	00b704a3          	sb	a1,9(a4)
40001990:	00b70423          	sb	a1,8(a4)
40001994:	00b703a3          	sb	a1,7(a4)
40001998:	00b70323          	sb	a1,6(a4)
4000199c:	00b702a3          	sb	a1,5(a4)
400019a0:	00b70223          	sb	a1,4(a4)
400019a4:	00b701a3          	sb	a1,3(a4)
400019a8:	00b70123          	sb	a1,2(a4)
400019ac:	00b700a3          	sb	a1,1(a4)
400019b0:	00b70023          	sb	a1,0(a4)
400019b4:	00008067          	ret
400019b8:	0ff5f593          	andi	a1,a1,255
400019bc:	00859693          	slli	a3,a1,0x8
400019c0:	00d5e5b3          	or	a1,a1,a3
400019c4:	01059693          	slli	a3,a1,0x10
400019c8:	00d5e5b3          	or	a1,a1,a3
400019cc:	f6dff06f          	j	40001938 <memset+0x18>
400019d0:	00279693          	slli	a3,a5,0x2
400019d4:	00000297          	auipc	t0,0x0
400019d8:	005686b3          	add	a3,a3,t0
400019dc:	00008293          	mv	t0,ra
400019e0:	fa0680e7          	jalr	-96(a3)
400019e4:	00028093          	mv	ra,t0
400019e8:	ff078793          	addi	a5,a5,-16
400019ec:	40f70733          	sub	a4,a4,a5
400019f0:	00f60633          	add	a2,a2,a5
400019f4:	f6c378e3          	bleu	a2,t1,40001964 <memset+0x44>
400019f8:	f3dff06f          	j	40001934 <memset+0x14>

400019fc <sbrk>:
400019fc:	00050593          	mv	a1,a0
40001a00:	8081a503          	lw	a0,-2040(gp) # 40003f10 <_impure_ptr>
40001a04:	0840006f          	j	40001a88 <_sbrk_r>

40001a08 <__register_exitproc>:
40001a08:	400047b7          	lui	a5,0x40004
40001a0c:	f0c7a703          	lw	a4,-244(a5) # 40003f0c <_global_impure_ptr>
40001a10:	00050313          	mv	t1,a0
40001a14:	14872783          	lw	a5,328(a4)
40001a18:	00079663          	bnez	a5,40001a24 <__register_exitproc+0x1c>
40001a1c:	14c70793          	addi	a5,a4,332
40001a20:	14f72423          	sw	a5,328(a4)
40001a24:	0047a703          	lw	a4,4(a5)
40001a28:	01f00813          	li	a6,31
40001a2c:	fff00513          	li	a0,-1
40001a30:	04e84a63          	blt	a6,a4,40001a84 <__register_exitproc+0x7c>
40001a34:	00271893          	slli	a7,a4,0x2
40001a38:	02030c63          	beqz	t1,40001a70 <__register_exitproc+0x68>
40001a3c:	01178533          	add	a0,a5,a7
40001a40:	08c52423          	sw	a2,136(a0)
40001a44:	1887a803          	lw	a6,392(a5)
40001a48:	00100613          	li	a2,1
40001a4c:	00e61633          	sll	a2,a2,a4
40001a50:	00c86833          	or	a6,a6,a2
40001a54:	1907a423          	sw	a6,392(a5)
40001a58:	10d52423          	sw	a3,264(a0)
40001a5c:	00200693          	li	a3,2
40001a60:	00d31863          	bne	t1,a3,40001a70 <__register_exitproc+0x68>
40001a64:	18c7a683          	lw	a3,396(a5)
40001a68:	00c6e633          	or	a2,a3,a2
40001a6c:	18c7a623          	sw	a2,396(a5)
40001a70:	00170713          	addi	a4,a4,1
40001a74:	00e7a223          	sw	a4,4(a5)
40001a78:	011787b3          	add	a5,a5,a7
40001a7c:	00b7a423          	sw	a1,8(a5)
40001a80:	00000513          	li	a0,0
40001a84:	00008067          	ret

40001a88 <_sbrk_r>:
40001a88:	ff010113          	addi	sp,sp,-16
40001a8c:	00812423          	sw	s0,8(sp)
40001a90:	00912223          	sw	s1,4(sp)
40001a94:	00050493          	mv	s1,a0
40001a98:	00058513          	mv	a0,a1
40001a9c:	00112623          	sw	ra,12(sp)
40001aa0:	8601a423          	sw	zero,-1944(gp) # 40003f70 <errno>
40001aa4:	331000ef          	jal	ra,400025d4 <_sbrk>
40001aa8:	fff00793          	li	a5,-1
40001aac:	00f51863          	bne	a0,a5,40001abc <_sbrk_r+0x34>
40001ab0:	8681a783          	lw	a5,-1944(gp) # 40003f70 <errno>
40001ab4:	00078463          	beqz	a5,40001abc <_sbrk_r+0x34>
40001ab8:	00f4a023          	sw	a5,0(s1)
40001abc:	00c12083          	lw	ra,12(sp)
40001ac0:	00812403          	lw	s0,8(sp)
40001ac4:	00412483          	lw	s1,4(sp)
40001ac8:	01010113          	addi	sp,sp,16
40001acc:	00008067          	ret

40001ad0 <cleanup_glue>:
40001ad0:	ff010113          	addi	sp,sp,-16
40001ad4:	00812423          	sw	s0,8(sp)
40001ad8:	00058413          	mv	s0,a1
40001adc:	0005a583          	lw	a1,0(a1)
40001ae0:	00912223          	sw	s1,4(sp)
40001ae4:	00112623          	sw	ra,12(sp)
40001ae8:	00050493          	mv	s1,a0
40001aec:	00058463          	beqz	a1,40001af4 <cleanup_glue+0x24>
40001af0:	fe1ff0ef          	jal	ra,40001ad0 <cleanup_glue>
40001af4:	00040593          	mv	a1,s0
40001af8:	00812403          	lw	s0,8(sp)
40001afc:	00c12083          	lw	ra,12(sp)
40001b00:	00048513          	mv	a0,s1
40001b04:	00412483          	lw	s1,4(sp)
40001b08:	01010113          	addi	sp,sp,16
40001b0c:	2200006f          	j	40001d2c <_free_r>

40001b10 <_reclaim_reent>:
40001b10:	8081a783          	lw	a5,-2040(gp) # 40003f10 <_impure_ptr>
40001b14:	10a78263          	beq	a5,a0,40001c18 <_reclaim_reent+0x108>
40001b18:	04c52783          	lw	a5,76(a0)
40001b1c:	fe010113          	addi	sp,sp,-32
40001b20:	00812c23          	sw	s0,24(sp)
40001b24:	00912a23          	sw	s1,20(sp)
40001b28:	01212823          	sw	s2,16(sp)
40001b2c:	00112e23          	sw	ra,28(sp)
40001b30:	01312623          	sw	s3,12(sp)
40001b34:	00050413          	mv	s0,a0
40001b38:	00000493          	li	s1,0
40001b3c:	08000913          	li	s2,128
40001b40:	04079463          	bnez	a5,40001b88 <_reclaim_reent+0x78>
40001b44:	04042583          	lw	a1,64(s0)
40001b48:	00058663          	beqz	a1,40001b54 <_reclaim_reent+0x44>
40001b4c:	00040513          	mv	a0,s0
40001b50:	1dc000ef          	jal	ra,40001d2c <_free_r>
40001b54:	14842583          	lw	a1,328(s0)
40001b58:	04058c63          	beqz	a1,40001bb0 <_reclaim_reent+0xa0>
40001b5c:	14c40493          	addi	s1,s0,332
40001b60:	04958863          	beq	a1,s1,40001bb0 <_reclaim_reent+0xa0>
40001b64:	0005a903          	lw	s2,0(a1)
40001b68:	00040513          	mv	a0,s0
40001b6c:	1c0000ef          	jal	ra,40001d2c <_free_r>
40001b70:	00090593          	mv	a1,s2
40001b74:	fedff06f          	j	40001b60 <_reclaim_reent+0x50>
40001b78:	009585b3          	add	a1,a1,s1
40001b7c:	0005a583          	lw	a1,0(a1)
40001b80:	00059e63          	bnez	a1,40001b9c <_reclaim_reent+0x8c>
40001b84:	00448493          	addi	s1,s1,4
40001b88:	04c42583          	lw	a1,76(s0)
40001b8c:	ff2496e3          	bne	s1,s2,40001b78 <_reclaim_reent+0x68>
40001b90:	00040513          	mv	a0,s0
40001b94:	198000ef          	jal	ra,40001d2c <_free_r>
40001b98:	fadff06f          	j	40001b44 <_reclaim_reent+0x34>
40001b9c:	0005a983          	lw	s3,0(a1)
40001ba0:	00040513          	mv	a0,s0
40001ba4:	188000ef          	jal	ra,40001d2c <_free_r>
40001ba8:	00098593          	mv	a1,s3
40001bac:	fd5ff06f          	j	40001b80 <_reclaim_reent+0x70>
40001bb0:	05442583          	lw	a1,84(s0)
40001bb4:	00058663          	beqz	a1,40001bc0 <_reclaim_reent+0xb0>
40001bb8:	00040513          	mv	a0,s0
40001bbc:	170000ef          	jal	ra,40001d2c <_free_r>
40001bc0:	03842783          	lw	a5,56(s0)
40001bc4:	02078c63          	beqz	a5,40001bfc <_reclaim_reent+0xec>
40001bc8:	03c42783          	lw	a5,60(s0)
40001bcc:	00040513          	mv	a0,s0
40001bd0:	000780e7          	jalr	a5
40001bd4:	2e042583          	lw	a1,736(s0)
40001bd8:	02058263          	beqz	a1,40001bfc <_reclaim_reent+0xec>
40001bdc:	00040513          	mv	a0,s0
40001be0:	01812403          	lw	s0,24(sp)
40001be4:	01c12083          	lw	ra,28(sp)
40001be8:	01412483          	lw	s1,20(sp)
40001bec:	01012903          	lw	s2,16(sp)
40001bf0:	00c12983          	lw	s3,12(sp)
40001bf4:	02010113          	addi	sp,sp,32
40001bf8:	ed9ff06f          	j	40001ad0 <cleanup_glue>
40001bfc:	01c12083          	lw	ra,28(sp)
40001c00:	01812403          	lw	s0,24(sp)
40001c04:	01412483          	lw	s1,20(sp)
40001c08:	01012903          	lw	s2,16(sp)
40001c0c:	00c12983          	lw	s3,12(sp)
40001c10:	02010113          	addi	sp,sp,32
40001c14:	00008067          	ret
40001c18:	00008067          	ret

40001c1c <_malloc_trim_r>:
40001c1c:	fd010113          	addi	sp,sp,-48
40001c20:	03212023          	sw	s2,32(sp)
40001c24:	40004937          	lui	s2,0x40004
40001c28:	02812423          	sw	s0,40(sp)
40001c2c:	02912223          	sw	s1,36(sp)
40001c30:	01312e23          	sw	s3,28(sp)
40001c34:	00b12623          	sw	a1,12(sp)
40001c38:	02112623          	sw	ra,44(sp)
40001c3c:	00050993          	mv	s3,a0
40001c40:	b0090913          	addi	s2,s2,-1280 # 40003b00 <__malloc_av_>
40001c44:	189000ef          	jal	ra,400025cc <__malloc_lock>
40001c48:	00892783          	lw	a5,8(s2)
40001c4c:	00c12583          	lw	a1,12(sp)
40001c50:	0047a483          	lw	s1,4(a5)
40001c54:	000017b7          	lui	a5,0x1
40001c58:	fef78413          	addi	s0,a5,-17 # fef <__reonv_start-0x40000011>
40001c5c:	ffc4f493          	andi	s1,s1,-4
40001c60:	40b40433          	sub	s0,s0,a1
40001c64:	00940433          	add	s0,s0,s1
40001c68:	00c45413          	srli	s0,s0,0xc
40001c6c:	fff40413          	addi	s0,s0,-1
40001c70:	00c41413          	slli	s0,s0,0xc
40001c74:	02f45663          	ble	a5,s0,40001ca0 <_malloc_trim_r+0x84>
40001c78:	00098513          	mv	a0,s3
40001c7c:	155000ef          	jal	ra,400025d0 <__malloc_unlock>
40001c80:	00000513          	li	a0,0
40001c84:	02c12083          	lw	ra,44(sp)
40001c88:	02812403          	lw	s0,40(sp)
40001c8c:	02412483          	lw	s1,36(sp)
40001c90:	02012903          	lw	s2,32(sp)
40001c94:	01c12983          	lw	s3,28(sp)
40001c98:	03010113          	addi	sp,sp,48
40001c9c:	00008067          	ret
40001ca0:	00000593          	li	a1,0
40001ca4:	00098513          	mv	a0,s3
40001ca8:	de1ff0ef          	jal	ra,40001a88 <_sbrk_r>
40001cac:	00892783          	lw	a5,8(s2)
40001cb0:	009787b3          	add	a5,a5,s1
40001cb4:	fcf512e3          	bne	a0,a5,40001c78 <_malloc_trim_r+0x5c>
40001cb8:	408005b3          	neg	a1,s0
40001cbc:	00098513          	mv	a0,s3
40001cc0:	dc9ff0ef          	jal	ra,40001a88 <_sbrk_r>
40001cc4:	fff00793          	li	a5,-1
40001cc8:	02f51c63          	bne	a0,a5,40001d00 <_malloc_trim_r+0xe4>
40001ccc:	00000593          	li	a1,0
40001cd0:	00098513          	mv	a0,s3
40001cd4:	db5ff0ef          	jal	ra,40001a88 <_sbrk_r>
40001cd8:	00892703          	lw	a4,8(s2)
40001cdc:	00f00693          	li	a3,15
40001ce0:	40e507b3          	sub	a5,a0,a4
40001ce4:	f8f6dae3          	ble	a5,a3,40001c78 <_malloc_trim_r+0x5c>
40001ce8:	80c1a683          	lw	a3,-2036(gp) # 40003f14 <__malloc_sbrk_base>
40001cec:	0017e793          	ori	a5,a5,1
40001cf0:	00f72223          	sw	a5,4(a4)
40001cf4:	40d50533          	sub	a0,a0,a3
40001cf8:	84a1a023          	sw	a0,-1984(gp) # 40003f48 <__malloc_current_mallinfo>
40001cfc:	f7dff06f          	j	40001c78 <_malloc_trim_r+0x5c>
40001d00:	00892783          	lw	a5,8(s2)
40001d04:	408484b3          	sub	s1,s1,s0
40001d08:	0014e493          	ori	s1,s1,1
40001d0c:	0097a223          	sw	s1,4(a5)
40001d10:	8401a783          	lw	a5,-1984(gp) # 40003f48 <__malloc_current_mallinfo>
40001d14:	00098513          	mv	a0,s3
40001d18:	40878433          	sub	s0,a5,s0
40001d1c:	8481a023          	sw	s0,-1984(gp) # 40003f48 <__malloc_current_mallinfo>
40001d20:	0b1000ef          	jal	ra,400025d0 <__malloc_unlock>
40001d24:	00100513          	li	a0,1
40001d28:	f5dff06f          	j	40001c84 <_malloc_trim_r+0x68>

40001d2c <_free_r>:
40001d2c:	24058c63          	beqz	a1,40001f84 <_free_r+0x258>
40001d30:	ff010113          	addi	sp,sp,-16
40001d34:	00812423          	sw	s0,8(sp)
40001d38:	00912223          	sw	s1,4(sp)
40001d3c:	00050413          	mv	s0,a0
40001d40:	00058493          	mv	s1,a1
40001d44:	00112623          	sw	ra,12(sp)
40001d48:	085000ef          	jal	ra,400025cc <__malloc_lock>
40001d4c:	ffc4a503          	lw	a0,-4(s1)
40001d50:	40004637          	lui	a2,0x40004
40001d54:	ff848693          	addi	a3,s1,-8
40001d58:	ffe57793          	andi	a5,a0,-2
40001d5c:	b0060813          	addi	a6,a2,-1280 # 40003b00 <__malloc_av_>
40001d60:	00f685b3          	add	a1,a3,a5
40001d64:	0045a703          	lw	a4,4(a1)
40001d68:	00882803          	lw	a6,8(a6)
40001d6c:	b0060613          	addi	a2,a2,-1280
40001d70:	ffc77713          	andi	a4,a4,-4
40001d74:	00157513          	andi	a0,a0,1
40001d78:	06b81063          	bne	a6,a1,40001dd8 <_free_r+0xac>
40001d7c:	00e787b3          	add	a5,a5,a4
40001d80:	02051063          	bnez	a0,40001da0 <_free_r+0x74>
40001d84:	ff84a703          	lw	a4,-8(s1)
40001d88:	40e686b3          	sub	a3,a3,a4
40001d8c:	0086a583          	lw	a1,8(a3)
40001d90:	00e787b3          	add	a5,a5,a4
40001d94:	00c6a703          	lw	a4,12(a3)
40001d98:	00e5a623          	sw	a4,12(a1)
40001d9c:	00b72423          	sw	a1,8(a4)
40001da0:	0017e713          	ori	a4,a5,1
40001da4:	00e6a223          	sw	a4,4(a3)
40001da8:	8101a703          	lw	a4,-2032(gp) # 40003f18 <__malloc_trim_threshold>
40001dac:	00d62423          	sw	a3,8(a2)
40001db0:	00e7e863          	bltu	a5,a4,40001dc0 <_free_r+0x94>
40001db4:	81c1a583          	lw	a1,-2020(gp) # 40003f24 <__malloc_top_pad>
40001db8:	00040513          	mv	a0,s0
40001dbc:	e61ff0ef          	jal	ra,40001c1c <_malloc_trim_r>
40001dc0:	00040513          	mv	a0,s0
40001dc4:	00812403          	lw	s0,8(sp)
40001dc8:	00c12083          	lw	ra,12(sp)
40001dcc:	00412483          	lw	s1,4(sp)
40001dd0:	01010113          	addi	sp,sp,16
40001dd4:	7fc0006f          	j	400025d0 <__malloc_unlock>
40001dd8:	00e5a223          	sw	a4,4(a1)
40001ddc:	00000813          	li	a6,0
40001de0:	02051663          	bnez	a0,40001e0c <_free_r+0xe0>
40001de4:	ff84a503          	lw	a0,-8(s1)
40001de8:	400048b7          	lui	a7,0x40004
40001dec:	b0888893          	addi	a7,a7,-1272 # 40003b08 <__malloc_av_+0x8>
40001df0:	40a686b3          	sub	a3,a3,a0
40001df4:	00a787b3          	add	a5,a5,a0
40001df8:	0086a503          	lw	a0,8(a3)
40001dfc:	0b150663          	beq	a0,a7,40001ea8 <_free_r+0x17c>
40001e00:	00c6a883          	lw	a7,12(a3)
40001e04:	01152623          	sw	a7,12(a0)
40001e08:	00a8a423          	sw	a0,8(a7)
40001e0c:	00e58533          	add	a0,a1,a4
40001e10:	00452503          	lw	a0,4(a0)
40001e14:	00157513          	andi	a0,a0,1
40001e18:	02051863          	bnez	a0,40001e48 <_free_r+0x11c>
40001e1c:	00e787b3          	add	a5,a5,a4
40001e20:	0085a703          	lw	a4,8(a1)
40001e24:	08081663          	bnez	a6,40001eb0 <_free_r+0x184>
40001e28:	40004537          	lui	a0,0x40004
40001e2c:	b0850513          	addi	a0,a0,-1272 # 40003b08 <__malloc_av_+0x8>
40001e30:	08a71063          	bne	a4,a0,40001eb0 <_free_r+0x184>
40001e34:	00d62a23          	sw	a3,20(a2)
40001e38:	00d62823          	sw	a3,16(a2)
40001e3c:	00e6a623          	sw	a4,12(a3)
40001e40:	00e6a423          	sw	a4,8(a3)
40001e44:	00100813          	li	a6,1
40001e48:	0017e713          	ori	a4,a5,1
40001e4c:	00e6a223          	sw	a4,4(a3)
40001e50:	00f68733          	add	a4,a3,a5
40001e54:	00f72023          	sw	a5,0(a4)
40001e58:	f60814e3          	bnez	a6,40001dc0 <_free_r+0x94>
40001e5c:	1ff00713          	li	a4,511
40001e60:	06f76063          	bltu	a4,a5,40001ec0 <_free_r+0x194>
40001e64:	0037d793          	srli	a5,a5,0x3
40001e68:	4027d593          	srai	a1,a5,0x2
40001e6c:	00100713          	li	a4,1
40001e70:	00b71733          	sll	a4,a4,a1
40001e74:	00462583          	lw	a1,4(a2)
40001e78:	00178793          	addi	a5,a5,1
40001e7c:	00379793          	slli	a5,a5,0x3
40001e80:	00f607b3          	add	a5,a2,a5
40001e84:	00b76733          	or	a4,a4,a1
40001e88:	00e62223          	sw	a4,4(a2)
40001e8c:	0007a703          	lw	a4,0(a5)
40001e90:	ff878613          	addi	a2,a5,-8
40001e94:	00c6a623          	sw	a2,12(a3)
40001e98:	00e6a423          	sw	a4,8(a3)
40001e9c:	00d7a023          	sw	a3,0(a5)
40001ea0:	00d72623          	sw	a3,12(a4)
40001ea4:	f1dff06f          	j	40001dc0 <_free_r+0x94>
40001ea8:	00100813          	li	a6,1
40001eac:	f61ff06f          	j	40001e0c <_free_r+0xe0>
40001eb0:	00c5a583          	lw	a1,12(a1)
40001eb4:	00b72623          	sw	a1,12(a4)
40001eb8:	00e5a423          	sw	a4,8(a1)
40001ebc:	f8dff06f          	j	40001e48 <_free_r+0x11c>
40001ec0:	0097d593          	srli	a1,a5,0x9
40001ec4:	00400713          	li	a4,4
40001ec8:	04b76863          	bltu	a4,a1,40001f18 <_free_r+0x1ec>
40001ecc:	0067d713          	srli	a4,a5,0x6
40001ed0:	03870713          	addi	a4,a4,56
40001ed4:	00170593          	addi	a1,a4,1
40001ed8:	00359593          	slli	a1,a1,0x3
40001edc:	00b605b3          	add	a1,a2,a1
40001ee0:	ff858513          	addi	a0,a1,-8
40001ee4:	0005a583          	lw	a1,0(a1)
40001ee8:	08b51463          	bne	a0,a1,40001f70 <_free_r+0x244>
40001eec:	00100793          	li	a5,1
40001ef0:	40275713          	srai	a4,a4,0x2
40001ef4:	00e79733          	sll	a4,a5,a4
40001ef8:	00462783          	lw	a5,4(a2)
40001efc:	00f76733          	or	a4,a4,a5
40001f00:	00e62223          	sw	a4,4(a2)
40001f04:	00a6a623          	sw	a0,12(a3)
40001f08:	00b6a423          	sw	a1,8(a3)
40001f0c:	00d52423          	sw	a3,8(a0)
40001f10:	00d5a623          	sw	a3,12(a1)
40001f14:	eadff06f          	j	40001dc0 <_free_r+0x94>
40001f18:	01400713          	li	a4,20
40001f1c:	00b76663          	bltu	a4,a1,40001f28 <_free_r+0x1fc>
40001f20:	05b58713          	addi	a4,a1,91
40001f24:	fb1ff06f          	j	40001ed4 <_free_r+0x1a8>
40001f28:	05400713          	li	a4,84
40001f2c:	00b76863          	bltu	a4,a1,40001f3c <_free_r+0x210>
40001f30:	00c7d713          	srli	a4,a5,0xc
40001f34:	06e70713          	addi	a4,a4,110
40001f38:	f9dff06f          	j	40001ed4 <_free_r+0x1a8>
40001f3c:	15400713          	li	a4,340
40001f40:	00b76863          	bltu	a4,a1,40001f50 <_free_r+0x224>
40001f44:	00f7d713          	srli	a4,a5,0xf
40001f48:	07770713          	addi	a4,a4,119
40001f4c:	f89ff06f          	j	40001ed4 <_free_r+0x1a8>
40001f50:	55400513          	li	a0,1364
40001f54:	07e00713          	li	a4,126
40001f58:	f6b56ee3          	bltu	a0,a1,40001ed4 <_free_r+0x1a8>
40001f5c:	0127d713          	srli	a4,a5,0x12
40001f60:	07c70713          	addi	a4,a4,124
40001f64:	f71ff06f          	j	40001ed4 <_free_r+0x1a8>
40001f68:	0085a583          	lw	a1,8(a1)
40001f6c:	00b50863          	beq	a0,a1,40001f7c <_free_r+0x250>
40001f70:	0045a703          	lw	a4,4(a1)
40001f74:	ffc77713          	andi	a4,a4,-4
40001f78:	fee7e8e3          	bltu	a5,a4,40001f68 <_free_r+0x23c>
40001f7c:	00c5a503          	lw	a0,12(a1)
40001f80:	f85ff06f          	j	40001f04 <_free_r+0x1d8>
40001f84:	00008067          	ret

40001f88 <_malloc_r>:
40001f88:	fd010113          	addi	sp,sp,-48
40001f8c:	02112623          	sw	ra,44(sp)
40001f90:	02812423          	sw	s0,40(sp)
40001f94:	02912223          	sw	s1,36(sp)
40001f98:	03212023          	sw	s2,32(sp)
40001f9c:	01312e23          	sw	s3,28(sp)
40001fa0:	01412c23          	sw	s4,24(sp)
40001fa4:	01512a23          	sw	s5,20(sp)
40001fa8:	01612823          	sw	s6,16(sp)
40001fac:	01712623          	sw	s7,12(sp)
40001fb0:	01812423          	sw	s8,8(sp)
40001fb4:	00b58793          	addi	a5,a1,11
40001fb8:	01600713          	li	a4,22
40001fbc:	04f77463          	bleu	a5,a4,40002004 <_malloc_r+0x7c>
40001fc0:	ff87f493          	andi	s1,a5,-8
40001fc4:	0404d263          	bgez	s1,40002008 <_malloc_r+0x80>
40001fc8:	00c00793          	li	a5,12
40001fcc:	00f52023          	sw	a5,0(a0)
40001fd0:	00000513          	li	a0,0
40001fd4:	02c12083          	lw	ra,44(sp)
40001fd8:	02812403          	lw	s0,40(sp)
40001fdc:	02412483          	lw	s1,36(sp)
40001fe0:	02012903          	lw	s2,32(sp)
40001fe4:	01c12983          	lw	s3,28(sp)
40001fe8:	01812a03          	lw	s4,24(sp)
40001fec:	01412a83          	lw	s5,20(sp)
40001ff0:	01012b03          	lw	s6,16(sp)
40001ff4:	00c12b83          	lw	s7,12(sp)
40001ff8:	00812c03          	lw	s8,8(sp)
40001ffc:	03010113          	addi	sp,sp,48
40002000:	00008067          	ret
40002004:	01000493          	li	s1,16
40002008:	fcb4e0e3          	bltu	s1,a1,40001fc8 <_malloc_r+0x40>
4000200c:	00050993          	mv	s3,a0
40002010:	5bc000ef          	jal	ra,400025cc <__malloc_lock>
40002014:	40004937          	lui	s2,0x40004
40002018:	1f700793          	li	a5,503
4000201c:	b0090913          	addi	s2,s2,-1280 # 40003b00 <__malloc_av_>
40002020:	0497ea63          	bltu	a5,s1,40002074 <_malloc_r+0xec>
40002024:	00848713          	addi	a4,s1,8
40002028:	00e90733          	add	a4,s2,a4
4000202c:	00472403          	lw	s0,4(a4)
40002030:	ff870693          	addi	a3,a4,-8
40002034:	0034d793          	srli	a5,s1,0x3
40002038:	00d41863          	bne	s0,a3,40002048 <_malloc_r+0xc0>
4000203c:	00c72403          	lw	s0,12(a4)
40002040:	00278793          	addi	a5,a5,2
40002044:	08870063          	beq	a4,s0,400020c4 <_malloc_r+0x13c>
40002048:	00442783          	lw	a5,4(s0)
4000204c:	00c42703          	lw	a4,12(s0)
40002050:	00842683          	lw	a3,8(s0)
40002054:	ffc7f793          	andi	a5,a5,-4
40002058:	00f407b3          	add	a5,s0,a5
4000205c:	00e6a623          	sw	a4,12(a3)
40002060:	00d72423          	sw	a3,8(a4)
40002064:	0047a703          	lw	a4,4(a5)
40002068:	00176713          	ori	a4,a4,1
4000206c:	00e7a223          	sw	a4,4(a5)
40002070:	0a80006f          	j	40002118 <_malloc_r+0x190>
40002074:	0094d713          	srli	a4,s1,0x9
40002078:	03f00793          	li	a5,63
4000207c:	00070a63          	beqz	a4,40002090 <_malloc_r+0x108>
40002080:	00400793          	li	a5,4
40002084:	0ae7e263          	bltu	a5,a4,40002128 <_malloc_r+0x1a0>
40002088:	0064d793          	srli	a5,s1,0x6
4000208c:	03878793          	addi	a5,a5,56
40002090:	00178713          	addi	a4,a5,1
40002094:	00371713          	slli	a4,a4,0x3
40002098:	00e90733          	add	a4,s2,a4
4000209c:	00472403          	lw	s0,4(a4)
400020a0:	ff870593          	addi	a1,a4,-8
400020a4:	00f00513          	li	a0,15
400020a8:	00b40c63          	beq	s0,a1,400020c0 <_malloc_r+0x138>
400020ac:	00442703          	lw	a4,4(s0)
400020b0:	ffc77713          	andi	a4,a4,-4
400020b4:	40970633          	sub	a2,a4,s1
400020b8:	0cc55063          	ble	a2,a0,40002178 <_malloc_r+0x1f0>
400020bc:	fff78793          	addi	a5,a5,-1
400020c0:	00178793          	addi	a5,a5,1
400020c4:	01092403          	lw	s0,16(s2)
400020c8:	400045b7          	lui	a1,0x40004
400020cc:	00890693          	addi	a3,s2,8
400020d0:	b0858593          	addi	a1,a1,-1272 # 40003b08 <__malloc_av_+0x8>
400020d4:	12d40863          	beq	s0,a3,40002204 <_malloc_r+0x27c>
400020d8:	00442703          	lw	a4,4(s0)
400020dc:	00f00613          	li	a2,15
400020e0:	ffc77713          	andi	a4,a4,-4
400020e4:	40970533          	sub	a0,a4,s1
400020e8:	0aa65a63          	ble	a0,a2,4000219c <_malloc_r+0x214>
400020ec:	0014e793          	ori	a5,s1,1
400020f0:	00f42223          	sw	a5,4(s0)
400020f4:	00940633          	add	a2,s0,s1
400020f8:	00c92a23          	sw	a2,20(s2)
400020fc:	00c92823          	sw	a2,16(s2)
40002100:	00156793          	ori	a5,a0,1
40002104:	00d62623          	sw	a3,12(a2)
40002108:	00d62423          	sw	a3,8(a2)
4000210c:	00f62223          	sw	a5,4(a2)
40002110:	00e40733          	add	a4,s0,a4
40002114:	00a72023          	sw	a0,0(a4)
40002118:	00098513          	mv	a0,s3
4000211c:	4b4000ef          	jal	ra,400025d0 <__malloc_unlock>
40002120:	00840513          	addi	a0,s0,8
40002124:	eb1ff06f          	j	40001fd4 <_malloc_r+0x4c>
40002128:	01400793          	li	a5,20
4000212c:	00e7e663          	bltu	a5,a4,40002138 <_malloc_r+0x1b0>
40002130:	05b70793          	addi	a5,a4,91
40002134:	f5dff06f          	j	40002090 <_malloc_r+0x108>
40002138:	05400793          	li	a5,84
4000213c:	00e7e863          	bltu	a5,a4,4000214c <_malloc_r+0x1c4>
40002140:	00c4d793          	srli	a5,s1,0xc
40002144:	06e78793          	addi	a5,a5,110
40002148:	f49ff06f          	j	40002090 <_malloc_r+0x108>
4000214c:	15400793          	li	a5,340
40002150:	00e7e863          	bltu	a5,a4,40002160 <_malloc_r+0x1d8>
40002154:	00f4d793          	srli	a5,s1,0xf
40002158:	07778793          	addi	a5,a5,119
4000215c:	f35ff06f          	j	40002090 <_malloc_r+0x108>
40002160:	55400693          	li	a3,1364
40002164:	07e00793          	li	a5,126
40002168:	f2e6e4e3          	bltu	a3,a4,40002090 <_malloc_r+0x108>
4000216c:	0124d793          	srli	a5,s1,0x12
40002170:	07c78793          	addi	a5,a5,124
40002174:	f1dff06f          	j	40002090 <_malloc_r+0x108>
40002178:	00c42683          	lw	a3,12(s0)
4000217c:	00064c63          	bltz	a2,40002194 <_malloc_r+0x20c>
40002180:	00842783          	lw	a5,8(s0)
40002184:	00d7a623          	sw	a3,12(a5)
40002188:	00f6a423          	sw	a5,8(a3)
4000218c:	00e407b3          	add	a5,s0,a4
40002190:	ed5ff06f          	j	40002064 <_malloc_r+0xdc>
40002194:	00068413          	mv	s0,a3
40002198:	f11ff06f          	j	400020a8 <_malloc_r+0x120>
4000219c:	00d92a23          	sw	a3,20(s2)
400021a0:	00d92823          	sw	a3,16(s2)
400021a4:	00054c63          	bltz	a0,400021bc <_malloc_r+0x234>
400021a8:	00e40733          	add	a4,s0,a4
400021ac:	00472783          	lw	a5,4(a4)
400021b0:	0017e793          	ori	a5,a5,1
400021b4:	00f72223          	sw	a5,4(a4)
400021b8:	f61ff06f          	j	40002118 <_malloc_r+0x190>
400021bc:	1ff00693          	li	a3,511
400021c0:	00492803          	lw	a6,4(s2)
400021c4:	16e6e663          	bltu	a3,a4,40002330 <_malloc_r+0x3a8>
400021c8:	00375713          	srli	a4,a4,0x3
400021cc:	40275613          	srai	a2,a4,0x2
400021d0:	00100693          	li	a3,1
400021d4:	00170713          	addi	a4,a4,1
400021d8:	00c696b3          	sll	a3,a3,a2
400021dc:	00371713          	slli	a4,a4,0x3
400021e0:	00e90733          	add	a4,s2,a4
400021e4:	0106e6b3          	or	a3,a3,a6
400021e8:	00d92223          	sw	a3,4(s2)
400021ec:	00072683          	lw	a3,0(a4)
400021f0:	ff870613          	addi	a2,a4,-8
400021f4:	00c42623          	sw	a2,12(s0)
400021f8:	00d42423          	sw	a3,8(s0)
400021fc:	00872023          	sw	s0,0(a4)
40002200:	0086a623          	sw	s0,12(a3)
40002204:	4027d713          	srai	a4,a5,0x2
40002208:	00100313          	li	t1,1
4000220c:	00e31333          	sll	t1,t1,a4
40002210:	00492703          	lw	a4,4(s2)
40002214:	06676a63          	bltu	a4,t1,40002288 <_malloc_r+0x300>
40002218:	006776b3          	and	a3,a4,t1
4000221c:	00069c63          	bnez	a3,40002234 <_malloc_r+0x2ac>
40002220:	ffc7f793          	andi	a5,a5,-4
40002224:	00131313          	slli	t1,t1,0x1
40002228:	006776b3          	and	a3,a4,t1
4000222c:	00478793          	addi	a5,a5,4
40002230:	fe068ae3          	beqz	a3,40002224 <_malloc_r+0x29c>
40002234:	00f00e13          	li	t3,15
40002238:	00379693          	slli	a3,a5,0x3
4000223c:	00d906b3          	add	a3,s2,a3
40002240:	00068813          	mv	a6,a3
40002244:	00078513          	mv	a0,a5
40002248:	00c82403          	lw	s0,12(a6)
4000224c:	1b041263          	bne	s0,a6,400023f0 <_malloc_r+0x468>
40002250:	00150513          	addi	a0,a0,1
40002254:	00357713          	andi	a4,a0,3
40002258:	00880813          	addi	a6,a6,8
4000225c:	fe0716e3          	bnez	a4,40002248 <_malloc_r+0x2c0>
40002260:	0037f713          	andi	a4,a5,3
40002264:	20071463          	bnez	a4,4000246c <_malloc_r+0x4e4>
40002268:	00492703          	lw	a4,4(s2)
4000226c:	fff34793          	not	a5,t1
40002270:	00f777b3          	and	a5,a4,a5
40002274:	00f92223          	sw	a5,4(s2)
40002278:	00492703          	lw	a4,4(s2)
4000227c:	00131313          	slli	t1,t1,0x1
40002280:	00676463          	bltu	a4,t1,40002288 <_malloc_r+0x300>
40002284:	20031863          	bnez	t1,40002494 <_malloc_r+0x50c>
40002288:	00892b83          	lw	s7,8(s2)
4000228c:	004ba403          	lw	s0,4(s7)
40002290:	ffc47a93          	andi	s5,s0,-4
40002294:	009ae863          	bltu	s5,s1,400022a4 <_malloc_r+0x31c>
40002298:	409a8733          	sub	a4,s5,s1
4000229c:	00f00793          	li	a5,15
400022a0:	30e7ca63          	blt	a5,a4,400025b4 <_malloc_r+0x62c>
400022a4:	81c1a403          	lw	s0,-2020(gp) # 40003f24 <__malloc_top_pad>
400022a8:	80c1a703          	lw	a4,-2036(gp) # 40003f14 <__malloc_sbrk_base>
400022ac:	fff00793          	li	a5,-1
400022b0:	00848433          	add	s0,s1,s0
400022b4:	1ef71463          	bne	a4,a5,4000249c <_malloc_r+0x514>
400022b8:	01040413          	addi	s0,s0,16
400022bc:	00040593          	mv	a1,s0
400022c0:	00098513          	mv	a0,s3
400022c4:	fc4ff0ef          	jal	ra,40001a88 <_sbrk_r>
400022c8:	fff00793          	li	a5,-1
400022cc:	00050b13          	mv	s6,a0
400022d0:	26f50863          	beq	a0,a5,40002540 <_malloc_r+0x5b8>
400022d4:	015b87b3          	add	a5,s7,s5
400022d8:	00f57463          	bleu	a5,a0,400022e0 <_malloc_r+0x358>
400022dc:	272b9263          	bne	s7,s2,40002540 <_malloc_r+0x5b8>
400022e0:	84018693          	addi	a3,gp,-1984 # 40003f48 <__malloc_current_mallinfo>
400022e4:	0006a703          	lw	a4,0(a3)
400022e8:	84018c13          	addi	s8,gp,-1984 # 40003f48 <__malloc_current_mallinfo>
400022ec:	00e40733          	add	a4,s0,a4
400022f0:	00e6a023          	sw	a4,0(a3)
400022f4:	1d679063          	bne	a5,s6,400024b4 <_malloc_r+0x52c>
400022f8:	01479693          	slli	a3,a5,0x14
400022fc:	1a069c63          	bnez	a3,400024b4 <_malloc_r+0x52c>
40002300:	00892783          	lw	a5,8(s2)
40002304:	008a8433          	add	s0,s5,s0
40002308:	00146413          	ori	s0,s0,1
4000230c:	0087a223          	sw	s0,4(a5)
40002310:	000c2783          	lw	a5,0(s8)
40002314:	8181a683          	lw	a3,-2024(gp) # 40003f20 <__malloc_max_sbrked_mem>
40002318:	00f6f463          	bleu	a5,a3,40002320 <_malloc_r+0x398>
4000231c:	80f1ac23          	sw	a5,-2024(gp) # 40003f20 <__malloc_max_sbrked_mem>
40002320:	8141a683          	lw	a3,-2028(gp) # 40003f1c <_edata>
40002324:	20f6fe63          	bleu	a5,a3,40002540 <_malloc_r+0x5b8>
40002328:	80f1aa23          	sw	a5,-2028(gp) # 40003f1c <_edata>
4000232c:	2140006f          	j	40002540 <_malloc_r+0x5b8>
40002330:	00975613          	srli	a2,a4,0x9
40002334:	00400693          	li	a3,4
40002338:	04c6e663          	bltu	a3,a2,40002384 <_malloc_r+0x3fc>
4000233c:	00675693          	srli	a3,a4,0x6
40002340:	03868693          	addi	a3,a3,56
40002344:	00168613          	addi	a2,a3,1
40002348:	00361613          	slli	a2,a2,0x3
4000234c:	00c90633          	add	a2,s2,a2
40002350:	ff860513          	addi	a0,a2,-8
40002354:	00062603          	lw	a2,0(a2)
40002358:	08c51263          	bne	a0,a2,400023dc <_malloc_r+0x454>
4000235c:	4026d693          	srai	a3,a3,0x2
40002360:	00100713          	li	a4,1
40002364:	00d716b3          	sll	a3,a4,a3
40002368:	0106e6b3          	or	a3,a3,a6
4000236c:	00d92223          	sw	a3,4(s2)
40002370:	00a42623          	sw	a0,12(s0)
40002374:	00c42423          	sw	a2,8(s0)
40002378:	00852423          	sw	s0,8(a0)
4000237c:	00862623          	sw	s0,12(a2)
40002380:	e85ff06f          	j	40002204 <_malloc_r+0x27c>
40002384:	01400693          	li	a3,20
40002388:	00c6e663          	bltu	a3,a2,40002394 <_malloc_r+0x40c>
4000238c:	05b60693          	addi	a3,a2,91
40002390:	fb5ff06f          	j	40002344 <_malloc_r+0x3bc>
40002394:	05400693          	li	a3,84
40002398:	00c6e863          	bltu	a3,a2,400023a8 <_malloc_r+0x420>
4000239c:	00c75693          	srli	a3,a4,0xc
400023a0:	06e68693          	addi	a3,a3,110
400023a4:	fa1ff06f          	j	40002344 <_malloc_r+0x3bc>
400023a8:	15400693          	li	a3,340
400023ac:	00c6e863          	bltu	a3,a2,400023bc <_malloc_r+0x434>
400023b0:	00f75693          	srli	a3,a4,0xf
400023b4:	07768693          	addi	a3,a3,119
400023b8:	f8dff06f          	j	40002344 <_malloc_r+0x3bc>
400023bc:	55400513          	li	a0,1364
400023c0:	07e00693          	li	a3,126
400023c4:	f8c560e3          	bltu	a0,a2,40002344 <_malloc_r+0x3bc>
400023c8:	01275693          	srli	a3,a4,0x12
400023cc:	07c68693          	addi	a3,a3,124
400023d0:	f75ff06f          	j	40002344 <_malloc_r+0x3bc>
400023d4:	00862603          	lw	a2,8(a2)
400023d8:	00c50863          	beq	a0,a2,400023e8 <_malloc_r+0x460>
400023dc:	00462683          	lw	a3,4(a2)
400023e0:	ffc6f693          	andi	a3,a3,-4
400023e4:	fed768e3          	bltu	a4,a3,400023d4 <_malloc_r+0x44c>
400023e8:	00c62503          	lw	a0,12(a2)
400023ec:	f85ff06f          	j	40002370 <_malloc_r+0x3e8>
400023f0:	00442703          	lw	a4,4(s0)
400023f4:	00c42603          	lw	a2,12(s0)
400023f8:	ffc77713          	andi	a4,a4,-4
400023fc:	409708b3          	sub	a7,a4,s1
40002400:	051e5063          	ble	a7,t3,40002440 <_malloc_r+0x4b8>
40002404:	0014e793          	ori	a5,s1,1
40002408:	00f42223          	sw	a5,4(s0)
4000240c:	00842783          	lw	a5,8(s0)
40002410:	009406b3          	add	a3,s0,s1
40002414:	00e40733          	add	a4,s0,a4
40002418:	00c7a623          	sw	a2,12(a5)
4000241c:	00f62423          	sw	a5,8(a2)
40002420:	00d92a23          	sw	a3,20(s2)
40002424:	00d92823          	sw	a3,16(s2)
40002428:	0018e793          	ori	a5,a7,1
4000242c:	00b6a623          	sw	a1,12(a3)
40002430:	00b6a423          	sw	a1,8(a3)
40002434:	00f6a223          	sw	a5,4(a3)
40002438:	01172023          	sw	a7,0(a4)
4000243c:	cddff06f          	j	40002118 <_malloc_r+0x190>
40002440:	0208c263          	bltz	a7,40002464 <_malloc_r+0x4dc>
40002444:	00e40733          	add	a4,s0,a4
40002448:	00472783          	lw	a5,4(a4)
4000244c:	0017e793          	ori	a5,a5,1
40002450:	00f72223          	sw	a5,4(a4)
40002454:	00842783          	lw	a5,8(s0)
40002458:	00c7a623          	sw	a2,12(a5)
4000245c:	00f62423          	sw	a5,8(a2)
40002460:	cb9ff06f          	j	40002118 <_malloc_r+0x190>
40002464:	00060413          	mv	s0,a2
40002468:	de5ff06f          	j	4000224c <_malloc_r+0x2c4>
4000246c:	ff868713          	addi	a4,a3,-8
40002470:	0006a683          	lw	a3,0(a3)
40002474:	fff78793          	addi	a5,a5,-1
40002478:	dee684e3          	beq	a3,a4,40002260 <_malloc_r+0x2d8>
4000247c:	dfdff06f          	j	40002278 <_malloc_r+0x2f0>
40002480:	00478793          	addi	a5,a5,4
40002484:	00131313          	slli	t1,t1,0x1
40002488:	006776b3          	and	a3,a4,t1
4000248c:	fe068ae3          	beqz	a3,40002480 <_malloc_r+0x4f8>
40002490:	da9ff06f          	j	40002238 <_malloc_r+0x2b0>
40002494:	00050793          	mv	a5,a0
40002498:	ff1ff06f          	j	40002488 <_malloc_r+0x500>
4000249c:	000017b7          	lui	a5,0x1
400024a0:	00f78793          	addi	a5,a5,15 # 100f <__reonv_start-0x3ffffff1>
400024a4:	00f40433          	add	s0,s0,a5
400024a8:	fffff7b7          	lui	a5,0xfffff
400024ac:	00f47433          	and	s0,s0,a5
400024b0:	e0dff06f          	j	400022bc <_malloc_r+0x334>
400024b4:	80c1a603          	lw	a2,-2036(gp) # 40003f14 <__malloc_sbrk_base>
400024b8:	fff00693          	li	a3,-1
400024bc:	0ad61663          	bne	a2,a3,40002568 <_malloc_r+0x5e0>
400024c0:	8161a623          	sw	s6,-2036(gp) # 40003f14 <__malloc_sbrk_base>
400024c4:	007b7593          	andi	a1,s6,7
400024c8:	00058863          	beqz	a1,400024d8 <_malloc_r+0x550>
400024cc:	00800793          	li	a5,8
400024d0:	40b785b3          	sub	a1,a5,a1
400024d4:	00bb0b33          	add	s6,s6,a1
400024d8:	000017b7          	lui	a5,0x1
400024dc:	00f585b3          	add	a1,a1,a5
400024e0:	008b0433          	add	s0,s6,s0
400024e4:	fff78793          	addi	a5,a5,-1 # fff <__reonv_start-0x40000001>
400024e8:	00f47433          	and	s0,s0,a5
400024ec:	40858a33          	sub	s4,a1,s0
400024f0:	000a0593          	mv	a1,s4
400024f4:	00098513          	mv	a0,s3
400024f8:	d90ff0ef          	jal	ra,40001a88 <_sbrk_r>
400024fc:	fff00793          	li	a5,-1
40002500:	00f51663          	bne	a0,a5,4000250c <_malloc_r+0x584>
40002504:	000b0513          	mv	a0,s6
40002508:	00000a13          	li	s4,0
4000250c:	000c2783          	lw	a5,0(s8)
40002510:	41650533          	sub	a0,a0,s6
40002514:	01692423          	sw	s6,8(s2)
40002518:	014787b3          	add	a5,a5,s4
4000251c:	01450a33          	add	s4,a0,s4
40002520:	001a6a13          	ori	s4,s4,1
40002524:	00fc2023          	sw	a5,0(s8)
40002528:	014b2223          	sw	s4,4(s6)
4000252c:	df2b82e3          	beq	s7,s2,40002310 <_malloc_r+0x388>
40002530:	00f00713          	li	a4,15
40002534:	05576263          	bltu	a4,s5,40002578 <_malloc_r+0x5f0>
40002538:	00100793          	li	a5,1
4000253c:	00fb2223          	sw	a5,4(s6)
40002540:	00892783          	lw	a5,8(s2)
40002544:	0047a783          	lw	a5,4(a5)
40002548:	ffc7f793          	andi	a5,a5,-4
4000254c:	40978733          	sub	a4,a5,s1
40002550:	0097e663          	bltu	a5,s1,4000255c <_malloc_r+0x5d4>
40002554:	00f00793          	li	a5,15
40002558:	04e7ce63          	blt	a5,a4,400025b4 <_malloc_r+0x62c>
4000255c:	00098513          	mv	a0,s3
40002560:	070000ef          	jal	ra,400025d0 <__malloc_unlock>
40002564:	a6dff06f          	j	40001fd0 <_malloc_r+0x48>
40002568:	40fb07b3          	sub	a5,s6,a5
4000256c:	00e787b3          	add	a5,a5,a4
40002570:	00fc2023          	sw	a5,0(s8)
40002574:	f51ff06f          	j	400024c4 <_malloc_r+0x53c>
40002578:	004ba783          	lw	a5,4(s7)
4000257c:	ff4a8413          	addi	s0,s5,-12
40002580:	ff847413          	andi	s0,s0,-8
40002584:	0017f793          	andi	a5,a5,1
40002588:	0087e7b3          	or	a5,a5,s0
4000258c:	00fba223          	sw	a5,4(s7)
40002590:	00500693          	li	a3,5
40002594:	008b87b3          	add	a5,s7,s0
40002598:	00d7a223          	sw	a3,4(a5)
4000259c:	00d7a423          	sw	a3,8(a5)
400025a0:	d68778e3          	bleu	s0,a4,40002310 <_malloc_r+0x388>
400025a4:	008b8593          	addi	a1,s7,8
400025a8:	00098513          	mv	a0,s3
400025ac:	f80ff0ef          	jal	ra,40001d2c <_free_r>
400025b0:	d61ff06f          	j	40002310 <_malloc_r+0x388>
400025b4:	00892403          	lw	s0,8(s2)
400025b8:	0014e793          	ori	a5,s1,1
400025bc:	00f42223          	sw	a5,4(s0)
400025c0:	009407b3          	add	a5,s0,s1
400025c4:	00f92423          	sw	a5,8(s2)
400025c8:	aa1ff06f          	j	40002068 <_malloc_r+0xe0>

400025cc <__malloc_lock>:
400025cc:	00008067          	ret

400025d0 <__malloc_unlock>:
400025d0:	00008067          	ret

400025d4 <_sbrk>:
400025d4:	ff010113          	addi	sp,sp,-16
400025d8:	00812423          	sw	s0,8(sp)
400025dc:	8201a783          	lw	a5,-2016(gp) # 40003f28 <heap_end.2474>
400025e0:	01212023          	sw	s2,0(sp)
400025e4:	00112623          	sw	ra,12(sp)
400025e8:	00912223          	sw	s1,4(sp)
400025ec:	00050913          	mv	s2,a0
400025f0:	04079a63          	bnez	a5,40002644 <_sbrk+0x70>
400025f4:	00000513          	li	a0,0
400025f8:	00000593          	li	a1,0
400025fc:	00000613          	li	a2,0
40002600:	00000693          	li	a3,0
40002604:	00000713          	li	a4,0
40002608:	0d600893          	li	a7,214
4000260c:	00000073          	ecall
40002610:	00050493          	mv	s1,a0
40002614:	02055663          	bgez	a0,40002640 <_sbrk+0x6c>
40002618:	084000ef          	jal	ra,4000269c <__errno>
4000261c:	409004b3          	neg	s1,s1
40002620:	00952023          	sw	s1,0(a0)
40002624:	fff00513          	li	a0,-1
40002628:	00c12083          	lw	ra,12(sp)
4000262c:	00812403          	lw	s0,8(sp)
40002630:	00412483          	lw	s1,4(sp)
40002634:	00012903          	lw	s2,0(sp)
40002638:	01010113          	addi	sp,sp,16
4000263c:	00008067          	ret
40002640:	82a1a023          	sw	a0,-2016(gp) # 40003f28 <heap_end.2474>
40002644:	8201a503          	lw	a0,-2016(gp) # 40003f28 <heap_end.2474>
40002648:	00000593          	li	a1,0
4000264c:	00000613          	li	a2,0
40002650:	00a90533          	add	a0,s2,a0
40002654:	00000693          	li	a3,0
40002658:	00000713          	li	a4,0
4000265c:	00000793          	li	a5,0
40002660:	0d600893          	li	a7,214
40002664:	00000073          	ecall
40002668:	00050493          	mv	s1,a0
4000266c:	00055a63          	bgez	a0,40002680 <_sbrk+0xac>
40002670:	409004b3          	neg	s1,s1
40002674:	028000ef          	jal	ra,4000269c <__errno>
40002678:	00952023          	sw	s1,0(a0)
4000267c:	fff00493          	li	s1,-1
40002680:	8201a783          	lw	a5,-2016(gp) # 40003f28 <heap_end.2474>
40002684:	fff00513          	li	a0,-1
40002688:	00f90933          	add	s2,s2,a5
4000268c:	f9249ee3          	bne	s1,s2,40002628 <_sbrk+0x54>
40002690:	8291a023          	sw	s1,-2016(gp) # 40003f28 <heap_end.2474>
40002694:	00078513          	mv	a0,a5
40002698:	f91ff06f          	j	40002628 <_sbrk+0x54>

4000269c <__errno>:
4000269c:	8081a503          	lw	a0,-2040(gp) # 40003f10 <_impure_ptr>
400026a0:	00008067          	ret

400026a4 <__mulsi3>:
400026a4:	00050613          	mv	a2,a0
400026a8:	00000513          	li	a0,0
400026ac:	0015f693          	andi	a3,a1,1
400026b0:	00068463          	beqz	a3,400026b8 <__mulsi3+0x14>
400026b4:	00c50533          	add	a0,a0,a2
400026b8:	0015d593          	srli	a1,a1,0x1
400026bc:	00161613          	slli	a2,a2,0x1
400026c0:	fe0596e3          	bnez	a1,400026ac <__mulsi3+0x8>
400026c4:	00008067          	ret

Disassembly of section .eh_frame:

400026c8 <__EH_FRAME_BEGIN__>:
400026c8:	0000                	unimp
	...

Disassembly of section .init_array:

400036cc <__frame_dummy_init_array_entry>:
400036cc:	167c                	addi	a5,sp,812
400036ce:	4000                	lw	s0,0(s0)

Disassembly of section .fini_array:

400036d0 <__do_global_dtors_aux_fini_array_entry>:
400036d0:	1628                	addi	a0,sp,808
400036d2:	4000                	lw	s0,0(s0)

Disassembly of section .data:

400036d8 <impure_data>:
400036d8:	0000                	unimp
400036da:	0000                	unimp
400036dc:	39c4                	fld	fs1,176(a1)
400036de:	4000                	lw	s0,0(s0)
400036e0:	3a2c                	fld	fa1,112(a2)
400036e2:	4000                	lw	s0,0(s0)
400036e4:	3a94                	fld	fa3,48(a3)
400036e6:	4000                	lw	s0,0(s0)
	...
40003780:	0001                	nop
40003782:	0000                	unimp
40003784:	0000                	unimp
40003786:	0000                	unimp
40003788:	330e                	fld	ft6,224(sp)
4000378a:	abcd                	j	40003d7c <__malloc_av_+0x27c>
4000378c:	1234                	addi	a3,sp,296
4000378e:	e66d                	bnez	a2,40003878 <impure_data+0x1a0>
40003790:	deec                	sw	a1,124(a3)
40003792:	0005                	c.nop	1
40003794:	0000000b          	0xb
	...

40003b00 <__malloc_av_>:
	...
40003b08:	3b00                	fld	fs0,48(a4)
40003b0a:	4000                	lw	s0,0(s0)
40003b0c:	3b00                	fld	fs0,48(a4)
40003b0e:	4000                	lw	s0,0(s0)
40003b10:	3b08                	fld	fa0,48(a4)
40003b12:	4000                	lw	s0,0(s0)
40003b14:	3b08                	fld	fa0,48(a4)
40003b16:	4000                	lw	s0,0(s0)
40003b18:	3b10                	fld	fa2,48(a4)
40003b1a:	4000                	lw	s0,0(s0)
40003b1c:	3b10                	fld	fa2,48(a4)
40003b1e:	4000                	lw	s0,0(s0)
40003b20:	3b18                	fld	fa4,48(a4)
40003b22:	4000                	lw	s0,0(s0)
40003b24:	3b18                	fld	fa4,48(a4)
40003b26:	4000                	lw	s0,0(s0)
40003b28:	3b20                	fld	fs0,112(a4)
40003b2a:	4000                	lw	s0,0(s0)
40003b2c:	3b20                	fld	fs0,112(a4)
40003b2e:	4000                	lw	s0,0(s0)
40003b30:	3b28                	fld	fa0,112(a4)
40003b32:	4000                	lw	s0,0(s0)
40003b34:	3b28                	fld	fa0,112(a4)
40003b36:	4000                	lw	s0,0(s0)
40003b38:	3b30                	fld	fa2,112(a4)
40003b3a:	4000                	lw	s0,0(s0)
40003b3c:	3b30                	fld	fa2,112(a4)
40003b3e:	4000                	lw	s0,0(s0)
40003b40:	3b38                	fld	fa4,112(a4)
40003b42:	4000                	lw	s0,0(s0)
40003b44:	3b38                	fld	fa4,112(a4)
40003b46:	4000                	lw	s0,0(s0)
40003b48:	3b40                	fld	fs0,176(a4)
40003b4a:	4000                	lw	s0,0(s0)
40003b4c:	3b40                	fld	fs0,176(a4)
40003b4e:	4000                	lw	s0,0(s0)
40003b50:	3b48                	fld	fa0,176(a4)
40003b52:	4000                	lw	s0,0(s0)
40003b54:	3b48                	fld	fa0,176(a4)
40003b56:	4000                	lw	s0,0(s0)
40003b58:	3b50                	fld	fa2,176(a4)
40003b5a:	4000                	lw	s0,0(s0)
40003b5c:	3b50                	fld	fa2,176(a4)
40003b5e:	4000                	lw	s0,0(s0)
40003b60:	3b58                	fld	fa4,176(a4)
40003b62:	4000                	lw	s0,0(s0)
40003b64:	3b58                	fld	fa4,176(a4)
40003b66:	4000                	lw	s0,0(s0)
40003b68:	3b60                	fld	fs0,240(a4)
40003b6a:	4000                	lw	s0,0(s0)
40003b6c:	3b60                	fld	fs0,240(a4)
40003b6e:	4000                	lw	s0,0(s0)
40003b70:	3b68                	fld	fa0,240(a4)
40003b72:	4000                	lw	s0,0(s0)
40003b74:	3b68                	fld	fa0,240(a4)
40003b76:	4000                	lw	s0,0(s0)
40003b78:	3b70                	fld	fa2,240(a4)
40003b7a:	4000                	lw	s0,0(s0)
40003b7c:	3b70                	fld	fa2,240(a4)
40003b7e:	4000                	lw	s0,0(s0)
40003b80:	3b78                	fld	fa4,240(a4)
40003b82:	4000                	lw	s0,0(s0)
40003b84:	3b78                	fld	fa4,240(a4)
40003b86:	4000                	lw	s0,0(s0)
40003b88:	3b80                	fld	fs0,48(a5)
40003b8a:	4000                	lw	s0,0(s0)
40003b8c:	3b80                	fld	fs0,48(a5)
40003b8e:	4000                	lw	s0,0(s0)
40003b90:	3b88                	fld	fa0,48(a5)
40003b92:	4000                	lw	s0,0(s0)
40003b94:	3b88                	fld	fa0,48(a5)
40003b96:	4000                	lw	s0,0(s0)
40003b98:	3b90                	fld	fa2,48(a5)
40003b9a:	4000                	lw	s0,0(s0)
40003b9c:	3b90                	fld	fa2,48(a5)
40003b9e:	4000                	lw	s0,0(s0)
40003ba0:	3b98                	fld	fa4,48(a5)
40003ba2:	4000                	lw	s0,0(s0)
40003ba4:	3b98                	fld	fa4,48(a5)
40003ba6:	4000                	lw	s0,0(s0)
40003ba8:	3ba0                	fld	fs0,112(a5)
40003baa:	4000                	lw	s0,0(s0)
40003bac:	3ba0                	fld	fs0,112(a5)
40003bae:	4000                	lw	s0,0(s0)
40003bb0:	3ba8                	fld	fa0,112(a5)
40003bb2:	4000                	lw	s0,0(s0)
40003bb4:	3ba8                	fld	fa0,112(a5)
40003bb6:	4000                	lw	s0,0(s0)
40003bb8:	3bb0                	fld	fa2,112(a5)
40003bba:	4000                	lw	s0,0(s0)
40003bbc:	3bb0                	fld	fa2,112(a5)
40003bbe:	4000                	lw	s0,0(s0)
40003bc0:	3bb8                	fld	fa4,112(a5)
40003bc2:	4000                	lw	s0,0(s0)
40003bc4:	3bb8                	fld	fa4,112(a5)
40003bc6:	4000                	lw	s0,0(s0)
40003bc8:	3bc0                	fld	fs0,176(a5)
40003bca:	4000                	lw	s0,0(s0)
40003bcc:	3bc0                	fld	fs0,176(a5)
40003bce:	4000                	lw	s0,0(s0)
40003bd0:	3bc8                	fld	fa0,176(a5)
40003bd2:	4000                	lw	s0,0(s0)
40003bd4:	3bc8                	fld	fa0,176(a5)
40003bd6:	4000                	lw	s0,0(s0)
40003bd8:	3bd0                	fld	fa2,176(a5)
40003bda:	4000                	lw	s0,0(s0)
40003bdc:	3bd0                	fld	fa2,176(a5)
40003bde:	4000                	lw	s0,0(s0)
40003be0:	3bd8                	fld	fa4,176(a5)
40003be2:	4000                	lw	s0,0(s0)
40003be4:	3bd8                	fld	fa4,176(a5)
40003be6:	4000                	lw	s0,0(s0)
40003be8:	3be0                	fld	fs0,240(a5)
40003bea:	4000                	lw	s0,0(s0)
40003bec:	3be0                	fld	fs0,240(a5)
40003bee:	4000                	lw	s0,0(s0)
40003bf0:	3be8                	fld	fa0,240(a5)
40003bf2:	4000                	lw	s0,0(s0)
40003bf4:	3be8                	fld	fa0,240(a5)
40003bf6:	4000                	lw	s0,0(s0)
40003bf8:	3bf0                	fld	fa2,240(a5)
40003bfa:	4000                	lw	s0,0(s0)
40003bfc:	3bf0                	fld	fa2,240(a5)
40003bfe:	4000                	lw	s0,0(s0)
40003c00:	3bf8                	fld	fa4,240(a5)
40003c02:	4000                	lw	s0,0(s0)
40003c04:	3bf8                	fld	fa4,240(a5)
40003c06:	4000                	lw	s0,0(s0)
40003c08:	3c00                	fld	fs0,56(s0)
40003c0a:	4000                	lw	s0,0(s0)
40003c0c:	3c00                	fld	fs0,56(s0)
40003c0e:	4000                	lw	s0,0(s0)
40003c10:	3c08                	fld	fa0,56(s0)
40003c12:	4000                	lw	s0,0(s0)
40003c14:	3c08                	fld	fa0,56(s0)
40003c16:	4000                	lw	s0,0(s0)
40003c18:	3c10                	fld	fa2,56(s0)
40003c1a:	4000                	lw	s0,0(s0)
40003c1c:	3c10                	fld	fa2,56(s0)
40003c1e:	4000                	lw	s0,0(s0)
40003c20:	3c18                	fld	fa4,56(s0)
40003c22:	4000                	lw	s0,0(s0)
40003c24:	3c18                	fld	fa4,56(s0)
40003c26:	4000                	lw	s0,0(s0)
40003c28:	3c20                	fld	fs0,120(s0)
40003c2a:	4000                	lw	s0,0(s0)
40003c2c:	3c20                	fld	fs0,120(s0)
40003c2e:	4000                	lw	s0,0(s0)
40003c30:	3c28                	fld	fa0,120(s0)
40003c32:	4000                	lw	s0,0(s0)
40003c34:	3c28                	fld	fa0,120(s0)
40003c36:	4000                	lw	s0,0(s0)
40003c38:	3c30                	fld	fa2,120(s0)
40003c3a:	4000                	lw	s0,0(s0)
40003c3c:	3c30                	fld	fa2,120(s0)
40003c3e:	4000                	lw	s0,0(s0)
40003c40:	3c38                	fld	fa4,120(s0)
40003c42:	4000                	lw	s0,0(s0)
40003c44:	3c38                	fld	fa4,120(s0)
40003c46:	4000                	lw	s0,0(s0)
40003c48:	3c40                	fld	fs0,184(s0)
40003c4a:	4000                	lw	s0,0(s0)
40003c4c:	3c40                	fld	fs0,184(s0)
40003c4e:	4000                	lw	s0,0(s0)
40003c50:	3c48                	fld	fa0,184(s0)
40003c52:	4000                	lw	s0,0(s0)
40003c54:	3c48                	fld	fa0,184(s0)
40003c56:	4000                	lw	s0,0(s0)
40003c58:	3c50                	fld	fa2,184(s0)
40003c5a:	4000                	lw	s0,0(s0)
40003c5c:	3c50                	fld	fa2,184(s0)
40003c5e:	4000                	lw	s0,0(s0)
40003c60:	3c58                	fld	fa4,184(s0)
40003c62:	4000                	lw	s0,0(s0)
40003c64:	3c58                	fld	fa4,184(s0)
40003c66:	4000                	lw	s0,0(s0)
40003c68:	3c60                	fld	fs0,248(s0)
40003c6a:	4000                	lw	s0,0(s0)
40003c6c:	3c60                	fld	fs0,248(s0)
40003c6e:	4000                	lw	s0,0(s0)
40003c70:	3c68                	fld	fa0,248(s0)
40003c72:	4000                	lw	s0,0(s0)
40003c74:	3c68                	fld	fa0,248(s0)
40003c76:	4000                	lw	s0,0(s0)
40003c78:	3c70                	fld	fa2,248(s0)
40003c7a:	4000                	lw	s0,0(s0)
40003c7c:	3c70                	fld	fa2,248(s0)
40003c7e:	4000                	lw	s0,0(s0)
40003c80:	3c78                	fld	fa4,248(s0)
40003c82:	4000                	lw	s0,0(s0)
40003c84:	3c78                	fld	fa4,248(s0)
40003c86:	4000                	lw	s0,0(s0)
40003c88:	3c80                	fld	fs0,56(s1)
40003c8a:	4000                	lw	s0,0(s0)
40003c8c:	3c80                	fld	fs0,56(s1)
40003c8e:	4000                	lw	s0,0(s0)
40003c90:	3c88                	fld	fa0,56(s1)
40003c92:	4000                	lw	s0,0(s0)
40003c94:	3c88                	fld	fa0,56(s1)
40003c96:	4000                	lw	s0,0(s0)
40003c98:	3c90                	fld	fa2,56(s1)
40003c9a:	4000                	lw	s0,0(s0)
40003c9c:	3c90                	fld	fa2,56(s1)
40003c9e:	4000                	lw	s0,0(s0)
40003ca0:	3c98                	fld	fa4,56(s1)
40003ca2:	4000                	lw	s0,0(s0)
40003ca4:	3c98                	fld	fa4,56(s1)
40003ca6:	4000                	lw	s0,0(s0)
40003ca8:	3ca0                	fld	fs0,120(s1)
40003caa:	4000                	lw	s0,0(s0)
40003cac:	3ca0                	fld	fs0,120(s1)
40003cae:	4000                	lw	s0,0(s0)
40003cb0:	3ca8                	fld	fa0,120(s1)
40003cb2:	4000                	lw	s0,0(s0)
40003cb4:	3ca8                	fld	fa0,120(s1)
40003cb6:	4000                	lw	s0,0(s0)
40003cb8:	3cb0                	fld	fa2,120(s1)
40003cba:	4000                	lw	s0,0(s0)
40003cbc:	3cb0                	fld	fa2,120(s1)
40003cbe:	4000                	lw	s0,0(s0)
40003cc0:	3cb8                	fld	fa4,120(s1)
40003cc2:	4000                	lw	s0,0(s0)
40003cc4:	3cb8                	fld	fa4,120(s1)
40003cc6:	4000                	lw	s0,0(s0)
40003cc8:	3cc0                	fld	fs0,184(s1)
40003cca:	4000                	lw	s0,0(s0)
40003ccc:	3cc0                	fld	fs0,184(s1)
40003cce:	4000                	lw	s0,0(s0)
40003cd0:	3cc8                	fld	fa0,184(s1)
40003cd2:	4000                	lw	s0,0(s0)
40003cd4:	3cc8                	fld	fa0,184(s1)
40003cd6:	4000                	lw	s0,0(s0)
40003cd8:	3cd0                	fld	fa2,184(s1)
40003cda:	4000                	lw	s0,0(s0)
40003cdc:	3cd0                	fld	fa2,184(s1)
40003cde:	4000                	lw	s0,0(s0)
40003ce0:	3cd8                	fld	fa4,184(s1)
40003ce2:	4000                	lw	s0,0(s0)
40003ce4:	3cd8                	fld	fa4,184(s1)
40003ce6:	4000                	lw	s0,0(s0)
40003ce8:	3ce0                	fld	fs0,248(s1)
40003cea:	4000                	lw	s0,0(s0)
40003cec:	3ce0                	fld	fs0,248(s1)
40003cee:	4000                	lw	s0,0(s0)
40003cf0:	3ce8                	fld	fa0,248(s1)
40003cf2:	4000                	lw	s0,0(s0)
40003cf4:	3ce8                	fld	fa0,248(s1)
40003cf6:	4000                	lw	s0,0(s0)
40003cf8:	3cf0                	fld	fa2,248(s1)
40003cfa:	4000                	lw	s0,0(s0)
40003cfc:	3cf0                	fld	fa2,248(s1)
40003cfe:	4000                	lw	s0,0(s0)
40003d00:	3cf8                	fld	fa4,248(s1)
40003d02:	4000                	lw	s0,0(s0)
40003d04:	3cf8                	fld	fa4,248(s1)
40003d06:	4000                	lw	s0,0(s0)
40003d08:	3d00                	fld	fs0,56(a0)
40003d0a:	4000                	lw	s0,0(s0)
40003d0c:	3d00                	fld	fs0,56(a0)
40003d0e:	4000                	lw	s0,0(s0)
40003d10:	3d08                	fld	fa0,56(a0)
40003d12:	4000                	lw	s0,0(s0)
40003d14:	3d08                	fld	fa0,56(a0)
40003d16:	4000                	lw	s0,0(s0)
40003d18:	3d10                	fld	fa2,56(a0)
40003d1a:	4000                	lw	s0,0(s0)
40003d1c:	3d10                	fld	fa2,56(a0)
40003d1e:	4000                	lw	s0,0(s0)
40003d20:	3d18                	fld	fa4,56(a0)
40003d22:	4000                	lw	s0,0(s0)
40003d24:	3d18                	fld	fa4,56(a0)
40003d26:	4000                	lw	s0,0(s0)
40003d28:	3d20                	fld	fs0,120(a0)
40003d2a:	4000                	lw	s0,0(s0)
40003d2c:	3d20                	fld	fs0,120(a0)
40003d2e:	4000                	lw	s0,0(s0)
40003d30:	3d28                	fld	fa0,120(a0)
40003d32:	4000                	lw	s0,0(s0)
40003d34:	3d28                	fld	fa0,120(a0)
40003d36:	4000                	lw	s0,0(s0)
40003d38:	3d30                	fld	fa2,120(a0)
40003d3a:	4000                	lw	s0,0(s0)
40003d3c:	3d30                	fld	fa2,120(a0)
40003d3e:	4000                	lw	s0,0(s0)
40003d40:	3d38                	fld	fa4,120(a0)
40003d42:	4000                	lw	s0,0(s0)
40003d44:	3d38                	fld	fa4,120(a0)
40003d46:	4000                	lw	s0,0(s0)
40003d48:	3d40                	fld	fs0,184(a0)
40003d4a:	4000                	lw	s0,0(s0)
40003d4c:	3d40                	fld	fs0,184(a0)
40003d4e:	4000                	lw	s0,0(s0)
40003d50:	3d48                	fld	fa0,184(a0)
40003d52:	4000                	lw	s0,0(s0)
40003d54:	3d48                	fld	fa0,184(a0)
40003d56:	4000                	lw	s0,0(s0)
40003d58:	3d50                	fld	fa2,184(a0)
40003d5a:	4000                	lw	s0,0(s0)
40003d5c:	3d50                	fld	fa2,184(a0)
40003d5e:	4000                	lw	s0,0(s0)
40003d60:	3d58                	fld	fa4,184(a0)
40003d62:	4000                	lw	s0,0(s0)
40003d64:	3d58                	fld	fa4,184(a0)
40003d66:	4000                	lw	s0,0(s0)
40003d68:	3d60                	fld	fs0,248(a0)
40003d6a:	4000                	lw	s0,0(s0)
40003d6c:	3d60                	fld	fs0,248(a0)
40003d6e:	4000                	lw	s0,0(s0)
40003d70:	3d68                	fld	fa0,248(a0)
40003d72:	4000                	lw	s0,0(s0)
40003d74:	3d68                	fld	fa0,248(a0)
40003d76:	4000                	lw	s0,0(s0)
40003d78:	3d70                	fld	fa2,248(a0)
40003d7a:	4000                	lw	s0,0(s0)
40003d7c:	3d70                	fld	fa2,248(a0)
40003d7e:	4000                	lw	s0,0(s0)
40003d80:	3d78                	fld	fa4,248(a0)
40003d82:	4000                	lw	s0,0(s0)
40003d84:	3d78                	fld	fa4,248(a0)
40003d86:	4000                	lw	s0,0(s0)
40003d88:	3d80                	fld	fs0,56(a1)
40003d8a:	4000                	lw	s0,0(s0)
40003d8c:	3d80                	fld	fs0,56(a1)
40003d8e:	4000                	lw	s0,0(s0)
40003d90:	3d88                	fld	fa0,56(a1)
40003d92:	4000                	lw	s0,0(s0)
40003d94:	3d88                	fld	fa0,56(a1)
40003d96:	4000                	lw	s0,0(s0)
40003d98:	3d90                	fld	fa2,56(a1)
40003d9a:	4000                	lw	s0,0(s0)
40003d9c:	3d90                	fld	fa2,56(a1)
40003d9e:	4000                	lw	s0,0(s0)
40003da0:	3d98                	fld	fa4,56(a1)
40003da2:	4000                	lw	s0,0(s0)
40003da4:	3d98                	fld	fa4,56(a1)
40003da6:	4000                	lw	s0,0(s0)
40003da8:	3da0                	fld	fs0,120(a1)
40003daa:	4000                	lw	s0,0(s0)
40003dac:	3da0                	fld	fs0,120(a1)
40003dae:	4000                	lw	s0,0(s0)
40003db0:	3da8                	fld	fa0,120(a1)
40003db2:	4000                	lw	s0,0(s0)
40003db4:	3da8                	fld	fa0,120(a1)
40003db6:	4000                	lw	s0,0(s0)
40003db8:	3db0                	fld	fa2,120(a1)
40003dba:	4000                	lw	s0,0(s0)
40003dbc:	3db0                	fld	fa2,120(a1)
40003dbe:	4000                	lw	s0,0(s0)
40003dc0:	3db8                	fld	fa4,120(a1)
40003dc2:	4000                	lw	s0,0(s0)
40003dc4:	3db8                	fld	fa4,120(a1)
40003dc6:	4000                	lw	s0,0(s0)
40003dc8:	3dc0                	fld	fs0,184(a1)
40003dca:	4000                	lw	s0,0(s0)
40003dcc:	3dc0                	fld	fs0,184(a1)
40003dce:	4000                	lw	s0,0(s0)
40003dd0:	3dc8                	fld	fa0,184(a1)
40003dd2:	4000                	lw	s0,0(s0)
40003dd4:	3dc8                	fld	fa0,184(a1)
40003dd6:	4000                	lw	s0,0(s0)
40003dd8:	3dd0                	fld	fa2,184(a1)
40003dda:	4000                	lw	s0,0(s0)
40003ddc:	3dd0                	fld	fa2,184(a1)
40003dde:	4000                	lw	s0,0(s0)
40003de0:	3dd8                	fld	fa4,184(a1)
40003de2:	4000                	lw	s0,0(s0)
40003de4:	3dd8                	fld	fa4,184(a1)
40003de6:	4000                	lw	s0,0(s0)
40003de8:	3de0                	fld	fs0,248(a1)
40003dea:	4000                	lw	s0,0(s0)
40003dec:	3de0                	fld	fs0,248(a1)
40003dee:	4000                	lw	s0,0(s0)
40003df0:	3de8                	fld	fa0,248(a1)
40003df2:	4000                	lw	s0,0(s0)
40003df4:	3de8                	fld	fa0,248(a1)
40003df6:	4000                	lw	s0,0(s0)
40003df8:	3df0                	fld	fa2,248(a1)
40003dfa:	4000                	lw	s0,0(s0)
40003dfc:	3df0                	fld	fa2,248(a1)
40003dfe:	4000                	lw	s0,0(s0)
40003e00:	3df8                	fld	fa4,248(a1)
40003e02:	4000                	lw	s0,0(s0)
40003e04:	3df8                	fld	fa4,248(a1)
40003e06:	4000                	lw	s0,0(s0)
40003e08:	3e00                	fld	fs0,56(a2)
40003e0a:	4000                	lw	s0,0(s0)
40003e0c:	3e00                	fld	fs0,56(a2)
40003e0e:	4000                	lw	s0,0(s0)
40003e10:	3e08                	fld	fa0,56(a2)
40003e12:	4000                	lw	s0,0(s0)
40003e14:	3e08                	fld	fa0,56(a2)
40003e16:	4000                	lw	s0,0(s0)
40003e18:	3e10                	fld	fa2,56(a2)
40003e1a:	4000                	lw	s0,0(s0)
40003e1c:	3e10                	fld	fa2,56(a2)
40003e1e:	4000                	lw	s0,0(s0)
40003e20:	3e18                	fld	fa4,56(a2)
40003e22:	4000                	lw	s0,0(s0)
40003e24:	3e18                	fld	fa4,56(a2)
40003e26:	4000                	lw	s0,0(s0)
40003e28:	3e20                	fld	fs0,120(a2)
40003e2a:	4000                	lw	s0,0(s0)
40003e2c:	3e20                	fld	fs0,120(a2)
40003e2e:	4000                	lw	s0,0(s0)
40003e30:	3e28                	fld	fa0,120(a2)
40003e32:	4000                	lw	s0,0(s0)
40003e34:	3e28                	fld	fa0,120(a2)
40003e36:	4000                	lw	s0,0(s0)
40003e38:	3e30                	fld	fa2,120(a2)
40003e3a:	4000                	lw	s0,0(s0)
40003e3c:	3e30                	fld	fa2,120(a2)
40003e3e:	4000                	lw	s0,0(s0)
40003e40:	3e38                	fld	fa4,120(a2)
40003e42:	4000                	lw	s0,0(s0)
40003e44:	3e38                	fld	fa4,120(a2)
40003e46:	4000                	lw	s0,0(s0)
40003e48:	3e40                	fld	fs0,184(a2)
40003e4a:	4000                	lw	s0,0(s0)
40003e4c:	3e40                	fld	fs0,184(a2)
40003e4e:	4000                	lw	s0,0(s0)
40003e50:	3e48                	fld	fa0,184(a2)
40003e52:	4000                	lw	s0,0(s0)
40003e54:	3e48                	fld	fa0,184(a2)
40003e56:	4000                	lw	s0,0(s0)
40003e58:	3e50                	fld	fa2,184(a2)
40003e5a:	4000                	lw	s0,0(s0)
40003e5c:	3e50                	fld	fa2,184(a2)
40003e5e:	4000                	lw	s0,0(s0)
40003e60:	3e58                	fld	fa4,184(a2)
40003e62:	4000                	lw	s0,0(s0)
40003e64:	3e58                	fld	fa4,184(a2)
40003e66:	4000                	lw	s0,0(s0)
40003e68:	3e60                	fld	fs0,248(a2)
40003e6a:	4000                	lw	s0,0(s0)
40003e6c:	3e60                	fld	fs0,248(a2)
40003e6e:	4000                	lw	s0,0(s0)
40003e70:	3e68                	fld	fa0,248(a2)
40003e72:	4000                	lw	s0,0(s0)
40003e74:	3e68                	fld	fa0,248(a2)
40003e76:	4000                	lw	s0,0(s0)
40003e78:	3e70                	fld	fa2,248(a2)
40003e7a:	4000                	lw	s0,0(s0)
40003e7c:	3e70                	fld	fa2,248(a2)
40003e7e:	4000                	lw	s0,0(s0)
40003e80:	3e78                	fld	fa4,248(a2)
40003e82:	4000                	lw	s0,0(s0)
40003e84:	3e78                	fld	fa4,248(a2)
40003e86:	4000                	lw	s0,0(s0)
40003e88:	3e80                	fld	fs0,56(a3)
40003e8a:	4000                	lw	s0,0(s0)
40003e8c:	3e80                	fld	fs0,56(a3)
40003e8e:	4000                	lw	s0,0(s0)
40003e90:	3e88                	fld	fa0,56(a3)
40003e92:	4000                	lw	s0,0(s0)
40003e94:	3e88                	fld	fa0,56(a3)
40003e96:	4000                	lw	s0,0(s0)
40003e98:	3e90                	fld	fa2,56(a3)
40003e9a:	4000                	lw	s0,0(s0)
40003e9c:	3e90                	fld	fa2,56(a3)
40003e9e:	4000                	lw	s0,0(s0)
40003ea0:	3e98                	fld	fa4,56(a3)
40003ea2:	4000                	lw	s0,0(s0)
40003ea4:	3e98                	fld	fa4,56(a3)
40003ea6:	4000                	lw	s0,0(s0)
40003ea8:	3ea0                	fld	fs0,120(a3)
40003eaa:	4000                	lw	s0,0(s0)
40003eac:	3ea0                	fld	fs0,120(a3)
40003eae:	4000                	lw	s0,0(s0)
40003eb0:	3ea8                	fld	fa0,120(a3)
40003eb2:	4000                	lw	s0,0(s0)
40003eb4:	3ea8                	fld	fa0,120(a3)
40003eb6:	4000                	lw	s0,0(s0)
40003eb8:	3eb0                	fld	fa2,120(a3)
40003eba:	4000                	lw	s0,0(s0)
40003ebc:	3eb0                	fld	fa2,120(a3)
40003ebe:	4000                	lw	s0,0(s0)
40003ec0:	3eb8                	fld	fa4,120(a3)
40003ec2:	4000                	lw	s0,0(s0)
40003ec4:	3eb8                	fld	fa4,120(a3)
40003ec6:	4000                	lw	s0,0(s0)
40003ec8:	3ec0                	fld	fs0,184(a3)
40003eca:	4000                	lw	s0,0(s0)
40003ecc:	3ec0                	fld	fs0,184(a3)
40003ece:	4000                	lw	s0,0(s0)
40003ed0:	3ec8                	fld	fa0,184(a3)
40003ed2:	4000                	lw	s0,0(s0)
40003ed4:	3ec8                	fld	fa0,184(a3)
40003ed6:	4000                	lw	s0,0(s0)
40003ed8:	3ed0                	fld	fa2,184(a3)
40003eda:	4000                	lw	s0,0(s0)
40003edc:	3ed0                	fld	fa2,184(a3)
40003ede:	4000                	lw	s0,0(s0)
40003ee0:	3ed8                	fld	fa4,184(a3)
40003ee2:	4000                	lw	s0,0(s0)
40003ee4:	3ed8                	fld	fa4,184(a3)
40003ee6:	4000                	lw	s0,0(s0)
40003ee8:	3ee0                	fld	fs0,248(a3)
40003eea:	4000                	lw	s0,0(s0)
40003eec:	3ee0                	fld	fs0,248(a3)
40003eee:	4000                	lw	s0,0(s0)
40003ef0:	3ee8                	fld	fa0,248(a3)
40003ef2:	4000                	lw	s0,0(s0)
40003ef4:	3ee8                	fld	fa0,248(a3)
40003ef6:	4000                	lw	s0,0(s0)
40003ef8:	3ef0                	fld	fa2,248(a3)
40003efa:	4000                	lw	s0,0(s0)
40003efc:	3ef0                	fld	fa2,248(a3)
40003efe:	4000                	lw	s0,0(s0)
40003f00:	3ef8                	fld	fa4,248(a3)
40003f02:	4000                	lw	s0,0(s0)
40003f04:	3ef8                	fld	fa4,248(a3)
40003f06:	4000                	lw	s0,0(s0)

Disassembly of section .sdata:

40003f08 <__TMC_END__>:
40003f08:	0000                	unimp
	...

40003f0c <_global_impure_ptr>:
40003f0c:	36d8                	fld	fa4,168(a3)
40003f0e:	4000                	lw	s0,0(s0)

40003f10 <_impure_ptr>:
40003f10:	36d8                	fld	fa4,168(a3)
40003f12:	4000                	lw	s0,0(s0)

40003f14 <__malloc_sbrk_base>:
40003f14:	ffff                	0xffff
40003f16:	ffff                	0xffff

40003f18 <__malloc_trim_threshold>:
40003f18:	0000                	unimp
40003f1a:	0002                	c.slli	zero,0x0

Disassembly of section .sbss:

40003f1c <__malloc_max_total_mem>:
40003f1c:	0000                	unimp
	...

40003f20 <__malloc_max_sbrked_mem>:
40003f20:	0000                	unimp
	...

40003f24 <__malloc_top_pad>:
40003f24:	0000                	unimp
	...

40003f28 <heap_end.2474>:
40003f28:	0000                	unimp
	...

Disassembly of section .bss:

40003f2c <completed.5176>:
40003f2c:	0000                	unimp
	...

40003f30 <object.5181>:
	...

40003f48 <__malloc_current_mallinfo>:
	...

40003f70 <errno>:
40003f70:	0000                	unimp
	...

Disassembly of section .comment:

00000000 <.comment>:
   0:	3a434347          	fmsub.d	ft6,ft6,ft4,ft7,rmm
   4:	2820                	fld	fs0,80(s0)
   6:	29554e47          	fmsub.s	ft8,fa0,fs5,ft5,rmm
   a:	3720                	fld	fs0,104(a4)
   c:	322e                	fld	ft4,232(sp)
   e:	302e                	fld	ft0,232(sp)
	...

Disassembly of section .debug_aranges:

00000000 <.debug_aranges>:
   0:	001c                	0x1c
   2:	0000                	unimp
   4:	0002                	c.slli	zero,0x0
   6:	0000                	unimp
   8:	0000                	unimp
   a:	0004                	0x4
   c:	0000                	unimp
   e:	0000                	unimp
  10:	26a4                	fld	fs1,72(a3)
  12:	4000                	lw	s0,0(s0)
  14:	0024                	addi	s1,sp,8
	...

Disassembly of section .debug_info:

00000000 <.debug_info>:
   0:	0022                	c.slli	zero,0x8
   2:	0000                	unimp
   4:	0002                	c.slli	zero,0x0
   6:	0000                	unimp
   8:	0000                	unimp
   a:	0104                	addi	s1,sp,128
   c:	0000                	unimp
   e:	0000                	unimp
  10:	26a4                	fld	fs1,72(a3)
  12:	4000                	lw	s0,0(s0)
  14:	26c8                	fld	fa0,136(a3)
  16:	4000                	lw	s0,0(s0)
  18:	0000                	unimp
  1a:	0000                	unimp
  1c:	00000033          	add	zero,zero,zero
  20:	0094                	addi	a3,sp,64
  22:	0000                	unimp
  24:	8001                	srli	s0,s0,0x0

Disassembly of section .debug_abbrev:

00000000 <.debug_abbrev>:
   0:	1101                	addi	sp,sp,-32
   2:	1000                	addi	s0,sp,32
   4:	1106                	slli	sp,sp,0x21
   6:	1201                	addi	tp,tp,-32
   8:	0301                	addi	t1,t1,0
   a:	1b0e                	slli	s6,s6,0x23
   c:	250e                	fld	fa0,192(sp)
   e:	130e                	slli	t1,t1,0x23
  10:	0005                	c.nop	1
	...

Disassembly of section .debug_line:

00000000 <.debug_line>:
   0:	0000008f          	0x8f
   4:	0002                	c.slli	zero,0x0
   6:	0049                	c.nop	18
   8:	0000                	unimp
   a:	0101                	addi	sp,sp,0
   c:	000d0efb          	0xd0efb
  10:	0101                	addi	sp,sp,0
  12:	0101                	addi	sp,sp,0
  14:	0000                	unimp
  16:	0100                	addi	s0,sp,128
  18:	0000                	unimp
  1a:	2e01                	jal	32a <__reonv_start-0x40000cd6>
  1c:	2f2e                	fld	ft10,200(sp)
  1e:	2e2e                	fld	ft8,200(sp)
  20:	2f2e2e2f          	0x2f2e2e2f
  24:	2e2e                	fld	ft8,200(sp)
  26:	7369722f          	0x7369722f
  2a:	672d7663          	bleu	s2,s10,696 <__reonv_start-0x4000096a>
  2e:	6c2f6363          	bltu	t5,sp,6f4 <__reonv_start-0x4000090c>
  32:	6269                	lui	tp,0x1a
  34:	2f636367          	0x2f636367
  38:	666e6f63          	bltu	t3,t1,6b6 <__reonv_start-0x4000094a>
  3c:	6769                	lui	a4,0x1a
  3e:	7369722f          	0x7369722f
  42:	00007663          	bleu	zero,zero,4e <__reonv_start-0x40000fb2>
  46:	756d                	lui	a0,0xffffb
  48:	646c                	flw	fa1,76(s0)
  4a:	3369                	jal	fffffdd4 <__global_pointer$+0xbfffb6cc>
  4c:	532e                	lw	t1,232(sp)
  4e:	0100                	addi	s0,sp,128
  50:	0000                	unimp
  52:	0000                	unimp
  54:	0205                	addi	tp,tp,1
  56:	26a4                	fld	fs1,72(a3)
  58:	4000                	lw	s0,0(s0)
  5a:	03012303          	lw	t1,48(sp)
  5e:	0901                	addi	s2,s2,0
  60:	0004                	0x4
  62:	0301                	addi	t1,t1,0
  64:	0902                	slli	s2,s2,0x0
  66:	0004                	0x4
  68:	0301                	addi	t1,t1,0
  6a:	0901                	addi	s2,s2,0
  6c:	0004                	0x4
  6e:	0301                	addi	t1,t1,0
  70:	0901                	addi	s2,s2,0
  72:	0004                	0x4
  74:	0301                	addi	t1,t1,0
  76:	0902                	slli	s2,s2,0x0
  78:	0004                	0x4
  7a:	0301                	addi	t1,t1,0
  7c:	0901                	addi	s2,s2,0
  7e:	0004                	0x4
  80:	0301                	addi	t1,t1,0
  82:	0901                	addi	s2,s2,0
  84:	0004                	0x4
  86:	0301                	addi	t1,t1,0
  88:	0901                	addi	s2,s2,0
  8a:	0004                	0x4
  8c:	0901                	addi	s2,s2,0
  8e:	0004                	0x4
  90:	0100                	addi	s0,sp,128
  92:	01              	Address 0x0000000000000092 is out of bounds.


Disassembly of section .debug_str:

00000000 <.debug_str>:
   0:	2e2e                	fld	ft8,200(sp)
   2:	2f2e2e2f          	0x2f2e2e2f
   6:	2e2e                	fld	ft8,200(sp)
   8:	2f2e2e2f          	0x2f2e2e2f
   c:	6972                	flw	fs2,28(sp)
   e:	2d766373          	csrrsi	t1,0x2d7,12
  12:	2f636367          	0x2f636367
  16:	696c                	flw	fa1,84(a0)
  18:	6762                	flw	fa4,24(sp)
  1a:	632f6363          	bltu	t5,s2,640 <__reonv_start-0x400009c0>
  1e:	69666e6f          	jal	t3,666b4 <__reonv_start-0x3ff9a94c>
  22:	69722f67          	0x69722f67
  26:	2f766373          	csrrsi	t1,0x2f7,12
  2a:	756d                	lui	a0,0xffffb
  2c:	646c                	flw	fa1,76(s0)
  2e:	3369                	jal	fffffdb8 <__global_pointer$+0xbfffb6b0>
  30:	532e                	lw	t1,232(sp)
  32:	2f00                	fld	fs0,24(a4)
  34:	6f68                	flw	fa0,92(a4)
  36:	656d                	lui	a0,0x1b
  38:	6f6f662f          	0x6f6f662f
  3c:	2f43492f          	0x2f43492f
  40:	6972                	flw	fs2,28(sp)
  42:	2d766373          	csrrsi	t1,0x2d7,12
  46:	656c                	flw	fa1,76(a0)
  48:	722f6e6f          	jal	t3,f676a <__reonv_start-0x3ff0a896>
  4c:	3376                	fld	ft6,376(sp)
  4e:	6932                	flw	fs2,12(sp)
  50:	742d                	lui	s0,0xfffeb
  52:	636c6f6f          	jal	t5,c6688 <__reonv_start-0x3ff3a978>
  56:	6168                	flw	fa0,68(a0)
  58:	6e69                	lui	t3,0x1a
  5a:	6975622f          	0x6975622f
  5e:	646c                	flw	fa1,76(s0)
  60:	6975622f          	0x6975622f
  64:	646c                	flw	fa1,76(s0)
  66:	672d                	lui	a4,0xb
  68:	6e2d6363          	bltu	s10,sp,74e <__reonv_start-0x400008b2>
  6c:	7765                	lui	a4,0xffff9
  6e:	696c                	flw	fa1,84(a0)
  70:	2d62                	fld	fs10,24(sp)
  72:	67617473          	csrrci	s0,0x676,2
  76:	3265                	jal	fffffa1e <__global_pointer$+0xbfffb316>
  78:	7369722f          	0x7369722f
  7c:	32337663          	bleu	gp,t1,3a8 <__reonv_start-0x40000c58>
  80:	752d                	lui	a0,0xfffeb
  82:	6b6e                	flw	fs6,216(sp)
  84:	6f6e                	flw	ft10,216(sp)
  86:	652d6e77          	0x652d6e77
  8a:	666c                	flw	fa1,76(a2)
  8c:	62696c2f          	0x62696c2f
  90:	00636367          	0x636367
  94:	20554e47          	fmsub.s	ft8,fa0,ft5,ft4,rmm
  98:	5341                	li	t1,-16
  9a:	3220                	fld	fs0,96(a2)
  9c:	322e                	fld	ft4,232(sp)
  9e:	0039                	c.nop	14
